MODULE Linux x86_64 A5A631FDF11C2E2222F100CF32F71F470 libpong.so
FUNC aa5c6 309 0 protobuf_AssignDesc_pong_5fmessages_2eproto
FUNC aa8cf 1c 0 protobuf_AssignDescriptorsOnce
FUNC aa8eb 61 0 protobuf_RegisterTypes
FUNC aa94c 117 0 protobuf_ShutdownFile_pong_5fmessages_2eproto
FUNC aaa63 1d4 0 protobuf_AddDesc_pong_5fmessages_2eproto
FUNC aac38 7f 0 PbufEchoMessage::PbufEchoMessage
FUNC aacb8 a 0 PbufEchoMessage::InitAsDefaultInstance
FUNC aacc2 96 0 PbufEchoMessage::PbufEchoMessage
FUNC aad58 42 0 PbufEchoMessage::SharedCtor
FUNC aad9a 5d 0 PbufEchoMessage::~PbufEchoMessage
FUNC aadf8 26 0 PbufEchoMessage::~PbufEchoMessage
FUNC aae1e 45 0 PbufEchoMessage::SharedDtor
FUNC aae64 17 0 PbufEchoMessage::SetCachedSize
FUNC aae7c 12 0 PbufEchoMessage::descriptor
FUNC aae8e 24 0 PbufEchoMessage::default_instance
FUNC aaeb2 48 0 PbufEchoMessage::New
FUNC aaefa 7e 0 PbufEchoMessage::Clear
FUNC aaf78 1b1 0 PbufEchoMessage::MergePartialFromCodedStream
FUNC ab12a b4 0 PbufEchoMessage::SerializeWithCachedSizes
FUNC ab1de 187 0 PbufEchoMessage::SerializeWithCachedSizesToArray
FUNC ab366 8c 0 PbufEchoMessage::ByteSize
FUNC ab3f2 fb 0 PbufEchoMessage::MergeFrom
FUNC ab4ee 11e 0 PbufEchoMessage::MergeFrom
FUNC ab60c 53 0 PbufEchoMessage::CopyFrom
FUNC ab660 48 0 PbufEchoMessage::CopyFrom
FUNC ab6a8 24 0 PbufEchoMessage::IsInitialized
FUNC ab6cc 88 0 PbufEchoMessage::Swap
FUNC ab754 31 0 PbufEchoMessage::GetMetadata
FUNC ab786 7f 0 PbufAnotherMessage::PbufAnotherMessage
FUNC ab806 a 0 PbufAnotherMessage::InitAsDefaultInstance
FUNC ab810 96 0 PbufAnotherMessage::PbufAnotherMessage
FUNC ab8a6 42 0 PbufAnotherMessage::SharedCtor
FUNC ab8e8 5d 0 PbufAnotherMessage::~PbufAnotherMessage
FUNC ab946 26 0 PbufAnotherMessage::~PbufAnotherMessage
FUNC ab96c 45 0 PbufAnotherMessage::SharedDtor
FUNC ab9b2 17 0 PbufAnotherMessage::SetCachedSize
FUNC ab9ca 12 0 PbufAnotherMessage::descriptor
FUNC ab9dc 24 0 PbufAnotherMessage::default_instance
FUNC aba00 48 0 PbufAnotherMessage::New
FUNC aba48 7e 0 PbufAnotherMessage::Clear
FUNC abac6 1b1 0 PbufAnotherMessage::MergePartialFromCodedStream
FUNC abc78 b4 0 PbufAnotherMessage::SerializeWithCachedSizes
FUNC abd2c 187 0 PbufAnotherMessage::SerializeWithCachedSizesToArray
FUNC abeb4 8c 0 PbufAnotherMessage::ByteSize
FUNC abf40 fb 0 PbufAnotherMessage::MergeFrom
FUNC ac03c 11e 0 PbufAnotherMessage::MergeFrom
FUNC ac15a 53 0 PbufAnotherMessage::CopyFrom
FUNC ac1ae 48 0 PbufAnotherMessage::CopyFrom
FUNC ac1f6 f 0 PbufAnotherMessage::IsInitialized
FUNC ac206 88 0 PbufAnotherMessage::Swap
FUNC ac28e 31 0 PbufAnotherMessage::GetMetadata
FUNC ac2c0 7f 0 PbufHelloMessage::PbufHelloMessage
FUNC ac340 a 0 PbufHelloMessage::InitAsDefaultInstance
FUNC ac34a 96 0 PbufHelloMessage::PbufHelloMessage
FUNC ac3e0 42 0 PbufHelloMessage::SharedCtor
FUNC ac422 5d 0 PbufHelloMessage::~PbufHelloMessage
FUNC ac480 26 0 PbufHelloMessage::~PbufHelloMessage
FUNC ac4a6 45 0 PbufHelloMessage::SharedDtor
FUNC ac4ec 17 0 PbufHelloMessage::SetCachedSize
FUNC ac504 12 0 PbufHelloMessage::descriptor
FUNC ac516 24 0 PbufHelloMessage::default_instance
FUNC ac53a 48 0 PbufHelloMessage::New
FUNC ac582 7e 0 PbufHelloMessage::Clear
FUNC ac600 1b1 0 PbufHelloMessage::MergePartialFromCodedStream
FUNC ac7b2 b4 0 PbufHelloMessage::SerializeWithCachedSizes
FUNC ac866 187 0 PbufHelloMessage::SerializeWithCachedSizesToArray
FUNC ac9ee 8c 0 PbufHelloMessage::ByteSize
FUNC aca7a fb 0 PbufHelloMessage::MergeFrom
FUNC acb76 11e 0 PbufHelloMessage::MergeFrom
FUNC acc94 53 0 PbufHelloMessage::CopyFrom
FUNC acce8 48 0 PbufHelloMessage::CopyFrom
FUNC acd30 f 0 PbufHelloMessage::IsInitialized
FUNC acd40 88 0 PbufHelloMessage::Swap
FUNC acdc8 31 0 PbufHelloMessage::GetMetadata
FUNC acdf9 82 0 __static_initialization_and_destruction_0
FUNC ace7b 15 0 _GLOBAL__sub_I_pong_messages.pb.cc
FUNC ace90 1c 0 google::protobuf::Closure::Closure
FUNC aceac 4c 0 google::protobuf::internal::FunctionClosure0::FunctionClosure0
FUNC acef8 1c 0 google::protobuf::MessageLite::MessageLite
FUNC acf14 2e 0 google::protobuf::FileDescriptor::message_type
FUNC acf42 2c 0 google::protobuf::Message::Message
FUNC acf6e 2a 0 google::protobuf::Message::GetReflection
FUNC acf98 26 0 google::protobuf::UnknownFieldSet::Clear
FUNC acfbe 39 0 google::protobuf::UnknownFieldSet::empty
FUNC acff8 25 0 google::protobuf::UnknownFieldSet::Swap
FUNC ad01e 12 0 PbufEchoMessage::unknown_fields
FUNC ad030 12 0 PbufEchoMessage::mutable_unknown_fields
FUNC ad042 11 0 PbufEchoMessage::GetCachedSize
FUNC ad054 12 0 PbufAnotherMessage::unknown_fields
FUNC ad066 12 0 PbufAnotherMessage::mutable_unknown_fields
FUNC ad078 11 0 PbufAnotherMessage::GetCachedSize
FUNC ad08a 12 0 PbufHelloMessage::unknown_fields
FUNC ad09c 12 0 PbufHelloMessage::mutable_unknown_fields
FUNC ad0ae 11 0 PbufHelloMessage::GetCachedSize
FUNC ad0c0 19 0 PbufEchoMessage::has_msg
FUNC ad0da 1d 0 PbufEchoMessage::set_has_msg
FUNC ad0f8 12 0 PbufEchoMessage::msg
FUNC ad10a 88 0 PbufEchoMessage::set_msg
FUNC ad192 75 0 PbufEchoMessage::mutable_msg
FUNC ad208 19 0 PbufAnotherMessage::has_msg
FUNC ad222 1d 0 PbufAnotherMessage::set_has_msg
FUNC ad240 12 0 PbufAnotherMessage::msg
FUNC ad252 88 0 PbufAnotherMessage::set_msg
FUNC ad2da 75 0 PbufAnotherMessage::mutable_msg
FUNC ad350 19 0 PbufHelloMessage::has_message
FUNC ad36a 1d 0 PbufHelloMessage::set_has_message
FUNC ad388 12 0 PbufHelloMessage::message
FUNC ad39a 88 0 PbufHelloMessage::set_message
FUNC ad422 75 0 PbufHelloMessage::mutable_message
FUNC ad497 19 0 google::protobuf::internal::Acquire_Load
FUNC ad4b0 82 0 google::protobuf::GoogleOnceInit
FUNC ad532 5b 0 google::protobuf::io::CodedInputStream::ExpectAtEnd
FUNC ad58e 3d 0 google::protobuf::io::CodedOutputStream::WriteVarint32ToArray
FUNC ad5cc 24 0 google::protobuf::io::CodedOutputStream::VarintSize32
FUNC ad5f0 40 0 google::protobuf::io::CodedOutputStream::WriteStringToArray
FUNC ad630 25 0 google::protobuf::io::CodedInputStream::Advance
FUNC ad656 1b 0 google::protobuf::internal::WireFormatLite::MakeTag
FUNC ad672 f 0 google::protobuf::internal::WireFormatLite::GetTagWireType
FUNC ad682 f 0 google::protobuf::internal::WireFormatLite::GetTagFieldNumber
FUNC ad692 37 0 google::protobuf::internal::WireFormatLite::StringSize
FUNC ad6ca 28 0 google::protobuf::internal::WireFormat::VerifyUTF8String
FUNC ad6f2 13 0 StaticDescriptorInitializer_pong_5fmessages_2eproto::StaticDescriptorInitializer_pong_5fmessages_2eproto
FUNC ad706 41 0 std::vector<google::protobuf::UnknownField, std::allocator<google::protobuf::UnknownField> >::empty
FUNC ad747 e 0 std::move<std::vector<google::protobuf::UnknownField>*&>
FUNC ad755 51 0 std::swap<std::vector<google::protobuf::UnknownField>*>
FUNC ad7a6 39 0 google::protobuf::internal::dynamic_cast_if_available<const PbufEchoMessage*, const google::protobuf::Message*>
FUNC ad7df e 0 std::move<std::basic_string<char>*&>
FUNC ad7ed 51 0 std::swap<std::basic_string<char>*>
FUNC ad83e e 0 std::move<unsigned int&>
FUNC ad84c 4b 0 std::swap<unsigned int>
FUNC ad897 e 0 std::move<int&>
FUNC ad8a5 4b 0 std::swap<int>
FUNC ad8f0 39 0 google::protobuf::internal::dynamic_cast_if_available<const PbufAnotherMessage*, const google::protobuf::Message*>
FUNC ad929 39 0 google::protobuf::internal::dynamic_cast_if_available<const PbufHelloMessage*, const google::protobuf::Message*>
FUNC ad962 26 0 google::protobuf::internal::ExtensionIdentifier<FunMessage, google::protobuf::internal::MessageTypeTraits<PbufEchoMessage>, 11u, false>::ExtensionIdentifier
FUNC ad988 26 0 google::protobuf::internal::ExtensionIdentifier<FunMessage, google::protobuf::internal::MessageTypeTraits<PbufAnotherMessage>, 11u, false>::ExtensionIdentifier
FUNC ad9ae 26 0 google::protobuf::internal::ExtensionIdentifier<FunMulticastMessage, google::protobuf::internal::MessageTypeTraits<PbufHelloMessage>, 11u, false>::ExtensionIdentifier
FUNC ad9d4 31 0 std::vector<google::protobuf::UnknownField, std::allocator<google::protobuf::UnknownField> >::end
FUNC ada06 30 0 std::vector<google::protobuf::UnknownField, std::allocator<google::protobuf::UnknownField> >::begin
FUNC ada36 3c 0 __gnu_cxx::operator==<const google::protobuf::UnknownField*, std::vector<google::protobuf::UnknownField> >
FUNC ada72 1c 0 __gnu_cxx::__normal_iterator<const google::protobuf::UnknownField*, std::vector<google::protobuf::UnknownField, std::allocator<google::protobuf::UnknownField> > >::__normal_iterator
FUNC ada8e e 0 __gnu_cxx::__normal_iterator<const google::protobuf::UnknownField*, std::vector<google::protobuf::UnknownField, std::allocator<google::protobuf::UnknownField> > >::base
FUNC ada9c 1d2 0 protobuf_AssignDesc_pong_5frpc_5fmessages_2eproto
FUNC adc6e 1c 0 protobuf_AssignDescriptorsOnce
FUNC adc8a 2d 0 protobuf_RegisterTypes
FUNC adcb7 61 0 protobuf_ShutdownFile_pong_5frpc_5fmessages_2eproto
FUNC add18 e7 0 protobuf_AddDesc_pong_5frpc_5fmessages_2eproto
FUNC ade00 7f 0 EchoRpcMessage::EchoRpcMessage
FUNC ade80 a 0 EchoRpcMessage::InitAsDefaultInstance
FUNC ade8a 96 0 EchoRpcMessage::EchoRpcMessage
FUNC adf20 42 0 EchoRpcMessage::SharedCtor
FUNC adf62 5d 0 EchoRpcMessage::~EchoRpcMessage
FUNC adfc0 26 0 EchoRpcMessage::~EchoRpcMessage
FUNC adfe6 45 0 EchoRpcMessage::SharedDtor
FUNC ae02c 17 0 EchoRpcMessage::SetCachedSize
FUNC ae044 12 0 EchoRpcMessage::descriptor
FUNC ae056 24 0 EchoRpcMessage::default_instance
FUNC ae07a 48 0 EchoRpcMessage::New
FUNC ae0c2 7e 0 EchoRpcMessage::Clear
FUNC ae140 1b1 0 EchoRpcMessage::MergePartialFromCodedStream
FUNC ae2f2 b4 0 EchoRpcMessage::SerializeWithCachedSizes
FUNC ae3a6 187 0 EchoRpcMessage::SerializeWithCachedSizesToArray
FUNC ae52e 8c 0 EchoRpcMessage::ByteSize
FUNC ae5ba fb 0 EchoRpcMessage::MergeFrom
FUNC ae6b6 11e 0 EchoRpcMessage::MergeFrom
FUNC ae7d4 53 0 EchoRpcMessage::CopyFrom
FUNC ae828 48 0 EchoRpcMessage::CopyFrom
FUNC ae870 f 0 EchoRpcMessage::IsInitialized
FUNC ae880 88 0 EchoRpcMessage::Swap
FUNC ae908 31 0 EchoRpcMessage::GetMetadata
FUNC ae939 4a 0 __static_initialization_and_destruction_0
FUNC ae983 15 0 _GLOBAL__sub_I_pong_rpc_messages.pb.cc
FUNC ae998 12 0 EchoRpcMessage::unknown_fields
FUNC ae9aa 12 0 EchoRpcMessage::mutable_unknown_fields
FUNC ae9bc 11 0 EchoRpcMessage::GetCachedSize
FUNC ae9ce 19 0 EchoRpcMessage::has_message
FUNC ae9e8 1d 0 EchoRpcMessage::set_has_message
FUNC aea06 12 0 EchoRpcMessage::message
FUNC aea18 88 0 EchoRpcMessage::set_message
FUNC aeaa0 75 0 EchoRpcMessage::mutable_message
FUNC aeb16 13 0 StaticDescriptorInitializer_pong_5frpc_5fmessages_2eproto::StaticDescriptorInitializer_pong_5frpc_5fmessages_2eproto
FUNC aeb29 39 0 google::protobuf::internal::dynamic_cast_if_available<const EchoRpcMessage*, const google::protobuf::Message*>
FUNC aeb62 26 0 google::protobuf::internal::ExtensionIdentifier<FunRpcMessage, google::protobuf::internal::MessageTypeTraits<EchoRpcMessage>, 11u, false>::ExtensionIdentifier
FUNC aeb88 3e 0 pong::ArrayRef<bool>::GetAt
FUNC aebc6 3e 0 pong::ArrayRef<long int>::GetAt
FUNC aec04 47 0 pong::ArrayRef<double>::GetAt
FUNC aec4c 55 0 pong::ArrayRef<std::basic_string<char, std::char_traits<char>, std::allocator<char> > >::GetAt
FUNC aeca2 42 0 pong::ArrayRef<boost::uuids::uuid>::GetAt
FUNC aece4 bd 0 pong::ArrayRef<boost::shared_ptr<pong::Character> >::GetAt
FUNC aeda2 bd 0 pong::ArrayRef<boost::shared_ptr<pong::User> >::GetAt
FUNC aee60 43 0 pong::ArrayRef<bool>::SetAt
FUNC aeea4 43 0 pong::ArrayRef<long int>::SetAt
FUNC aeee8 43 0 pong::ArrayRef<double>::SetAt
FUNC aef2c 43 0 pong::ArrayRef<std::basic_string<char, std::char_traits<char>, std::allocator<char> > >::SetAt
FUNC aef70 43 0 pong::ArrayRef<boost::uuids::uuid>::SetAt
FUNC aefb4 99 0 pong::ArrayRef<boost::shared_ptr<pong::Character> >::SetAt
FUNC af04e 99 0 pong::ArrayRef<boost::shared_ptr<pong::User> >::SetAt
FUNC af0e8 43 0 pong::ArrayRef<bool>::InsertAt
FUNC af12c 43 0 pong::ArrayRef<long int>::InsertAt
FUNC af170 43 0 pong::ArrayRef<double>::InsertAt
FUNC af1b4 43 0 pong::ArrayRef<std::basic_string<char, std::char_traits<char>, std::allocator<char> > >::InsertAt
FUNC af1f8 43 0 pong::ArrayRef<boost::uuids::uuid>::InsertAt
FUNC af23c 99 0 pong::ArrayRef<boost::shared_ptr<pong::Character> >::InsertAt
FUNC af2d6 99 0 pong::ArrayRef<boost::shared_ptr<pong::User> >::InsertAt
FUNC af370 1f 0 pong::ArrayRef<bool>::Front
FUNC af390 1f 0 pong::ArrayRef<long int>::Front
FUNC af3b0 31 0 pong::ArrayRef<double>::Front
FUNC af3e2 2e 0 pong::ArrayRef<std::basic_string<char, std::char_traits<char>, std::allocator<char> > >::Front
FUNC af410 1f 0 pong::ArrayRef<boost::uuids::uuid>::Front
FUNC af430 2e 0 pong::ArrayRef<boost::shared_ptr<pong::Character> >::Front
FUNC af45e 2e 0 pong::ArrayRef<boost::shared_ptr<pong::User> >::Front
FUNC af48c 2d 0 pong::ArrayRef<bool>::Back
FUNC af4ba 2d 0 pong::ArrayRef<long int>::Back
FUNC af4e8 3f 0 pong::ArrayRef<double>::Back
FUNC af528 39 0 pong::ArrayRef<std::basic_string<char, std::char_traits<char>, std::allocator<char> > >::Back
FUNC af562 2d 0 pong::ArrayRef<boost::uuids::uuid>::Back
FUNC af590 39 0 pong::ArrayRef<boost::shared_ptr<pong::Character> >::Back
FUNC af5ca 39 0 pong::ArrayRef<boost::shared_ptr<pong::User> >::Back
FUNC af604 27 0 pong::ArrayRef<bool>::PushFront
FUNC af62c 27 0 pong::ArrayRef<long int>::PushFront
FUNC af654 27 0 pong::ArrayRef<double>::PushFront
FUNC af67c 27 0 pong::ArrayRef<std::basic_string<char, std::char_traits<char>, std::allocator<char> > >::PushFront
FUNC af6a4 27 0 pong::ArrayRef<boost::uuids::uuid>::PushFront
FUNC af6cc 27 0 pong::ArrayRef<boost::shared_ptr<pong::Character> >::PushFront
FUNC af6f4 27 0 pong::ArrayRef<boost::shared_ptr<pong::User> >::PushFront
FUNC af71c 34 0 pong::ArrayRef<bool>::PushBack
FUNC af750 34 0 pong::ArrayRef<long int>::PushBack
FUNC af784 34 0 pong::ArrayRef<double>::PushBack
FUNC af7b8 34 0 pong::ArrayRef<std::basic_string<char, std::char_traits<char>, std::allocator<char> > >::PushBack
FUNC af7ec 34 0 pong::ArrayRef<boost::uuids::uuid>::PushBack
FUNC af820 34 0 pong::ArrayRef<boost::shared_ptr<pong::Character> >::PushBack
FUNC af854 34 0 pong::ArrayRef<boost::shared_ptr<pong::User> >::PushBack
FUNC af888 a8 0 pong::::ConvertArrayRefToVector
FUNC af930 188 0 pong::Character::MatchByObjectId
FUNC afab8 1a6 0 pong::Character::MatchByName
FUNC afc5e 16d 0 pong::Character::MatchByExp
FUNC afdcc 16d 0 pong::Character::MatchByLevel
FUNC aff3a 16d 0 pong::Character::MatchByHp
FUNC b00a8 16d 0 pong::Character::MatchByMp
FUNC b0216 f0 0 pong::Character::RegisterNameTrigger
FUNC b0306 f0 0 pong::Character::RegisterExpTrigger
FUNC b03f6 f0 0 pong::Character::RegisterLevelTrigger
FUNC b04e6 f0 0 pong::Character::RegisterHpTrigger
FUNC b05d6 f0 0 pong::Character::RegisterMpTrigger
FUNC b06c6 1b4 0 pong::Character::SelectByName
FUNC b087a 1b4 0 pong::Character::SelectByExp
FUNC b0a2e 1b4 0 pong::Character::SelectByLevel
FUNC b0be2 1b4 0 pong::Character::SelectByHp
FUNC b0d96 1b4 0 pong::Character::SelectByMp
FUNC b0f4a 990 0 pong::Character::CreateOpaqueDataFromJson
FUNC b18da 2a8 0 pong::Character::Create
FUNC b1b82 16a 0 pong::Character::Fetch
FUNC b1cec 391 0 pong::Character::Fetch
FUNC b207e 221 0 pong::Character::FetchByName
FUNC b22a0 5d6 0 pong::Character::FetchByName
FUNC b2876 1c8 0 pong::Character::FetchRandomly
FUNC b2a3e 1a 0 pong::Character::IsNull
FUNC b2a58 1a 0 pong::Character::IsFresh
FUNC b2a72 1a 0 pong::Character::Refresh
FUNC b2a8c 2c 0 pong::Character::ToJson
FUNC b2ab8 61 0 pong::Character::Id
FUNC b2b1a 59 0 pong::Character::Delete
FUNC b2b74 92 0 pong::Character::PopulateFrom
FUNC b2c06 f0 0 pong::Character::GetName
FUNC b2cf6 de 0 pong::Character::SetName
FUNC b2dd4 dc 0 pong::Character::GetExp
FUNC b2eb0 de 0 pong::Character::SetExp
FUNC b2f8e dc 0 pong::Character::GetLevel
FUNC b306a de 0 pong::Character::SetLevel
FUNC b3148 dc 0 pong::Character::GetHp
FUNC b3224 de 0 pong::Character::SetHp
FUNC b3302 dc 0 pong::Character::GetMp
FUNC b33de de 0 pong::Character::SetMp
FUNC b34bc 37 0 pong::Character::Character
FUNC b34f4 188 0 pong::User::MatchByObjectId
FUNC b367c 1a6 0 pong::User::MatchById
FUNC b3822 18b 0 pong::User::MatchByMyCharacter
FUNC b39ae 16d 0 pong::User::MatchBytmp
FUNC b3b1c f0 0 pong::User::RegisterIdTrigger
FUNC b3c0c f0 0 pong::User::RegisterMyCharacterTrigger
FUNC b3cfc f0 0 pong::User::RegistertmpTrigger
FUNC b3dec 1b4 0 pong::User::SelectById
FUNC b3fa0 1c7 0 pong::User::SelectByMyCharacter
FUNC b4168 1b4 0 pong::User::SelectBytmp
FUNC b431c 590 0 pong::User::CreateOpaqueDataFromJson
FUNC b48ac 2a8 0 pong::User::Create
FUNC b4b54 16a 0 pong::User::Fetch
FUNC b4cbe 391 0 pong::User::Fetch
FUNC b5050 221 0 pong::User::FetchById
FUNC b5272 5d6 0 pong::User::FetchById
FUNC b5848 1c8 0 pong::User::FetchRandomly
FUNC b5a10 1a 0 pong::User::IsNull
FUNC b5a2a 1a 0 pong::User::IsFresh
FUNC b5a44 1a 0 pong::User::Refresh
FUNC b5a5e 2c 0 pong::User::ToJson
FUNC b5a8a 61 0 pong::User::Id
FUNC b5aec 59 0 pong::User::Delete
FUNC b5b46 188 0 pong::User::PopulateFrom
FUNC b5cce f0 0 pong::User::GetId
FUNC b5dbe de 0 pong::User::SetId
FUNC b5e9c 27e 0 pong::User::GetMyCharacter
FUNC b611a 19d 0 pong::User::SetMyCharacter
FUNC b62b8 e5 0 pong::User::DeleteMyCharacter
FUNC b639e dc 0 pong::User::Gettmp
FUNC b647a de 0 pong::User::Settmp
FUNC b6558 37 0 pong::User::User
FUNC b658f 740 0 pong::RegisterCharacterModel
FUNC b6ccf 5c2 0 pong::RegisterUserModel
FUNC b7291 15 0 pong::ObjectModelInit
FUNC b72a6 330 0 pong::DumpJson
FUNC b75d6 3d 0 pong::DumpJson
FUNC b7613 293 0 pong::DumpJson
FUNC b78a6 3d 0 pong::DumpJson
FUNC b78e3 3bd 0 __static_initialization_and_destruction_0
FUNC b7ca0 15 0 _GLOBAL__sub_I_pong_object.cc
FUNC b7cb6 1c 0 std::exception::exception
FUNC b7cd2 2c 0 std::bad_exception::bad_exception
FUNC b7cfe 2c 0 std::bad_alloc::bad_alloc
FUNC b7d2a 12 0 operator new
FUNC b7d3c e 0 operator delete
FUNC b7d4a 2f 0 std::type_info::name
FUNC b7d7a 20 0 std::exception::exception
FUNC b7d9a 2d 0 std::char_traits<char>::compare
FUNC b7dc8 19 0 boost::error_info<boost::throw_function_, char const*>::error_info
FUNC b7de2 19 0 boost::error_info<boost::throw_file_, char const*>::error_info
FUNC b7dfc 16 0 boost::error_info<boost::throw_line_, int>::error_info
FUNC b7e12 53 0 boost::exception::exception
FUNC b7e66 45 0 boost::exception::~exception
FUNC b7eac 26 0 boost::exception::~exception
FUNC b7ed2 35 0 boost::exception_detail::clone_base::~clone_base
FUNC b7f08 26 0 boost::exception_detail::clone_base::~clone_base
FUNC b7f2e fa 0 boost::exception_detail::copy_boost_exception
FUNC b8028 a 0 boost::throw_exception_assert_compatibility
FUNC b8032 22 0 boost::detail::atomic_exchange_and_add
FUNC b8054 15 0 boost::detail::atomic_increment
FUNC b806a 32 0 boost::detail::sp_counted_base::sp_counted_base
FUNC b809c 35 0 boost::detail::sp_counted_base::~sp_counted_base
FUNC b80d2 26 0 boost::detail::sp_counted_base::~sp_counted_base
FUNC b80f8 2c 0 boost::detail::sp_counted_base::destroy
FUNC b8124 1e 0 boost::detail::sp_counted_base::add_ref_copy
FUNC b8142 50 0 boost::detail::sp_counted_base::release
FUNC b8192 44 0 boost::detail::sp_counted_base::weak_release
FUNC b81d6 15 0 boost::detail::shared_count::shared_count
FUNC b81ec 29 0 boost::detail::shared_count::~shared_count
FUNC b8216 3b 0 boost::detail::shared_count::shared_count
FUNC b8252 32 0 boost::detail::shared_count::swap
FUNC b8284 15 0 boost::detail::weak_count::weak_count
FUNC b829a 29 0 boost::detail::weak_count::~weak_count
FUNC b82c3 14 0 std::operator&
FUNC b82d7 14 0 std::operator|
FUNC b82eb e 0 std::operator~
FUNC b82f9 2d 0 std::operator|=
FUNC b8326 2d 0 std::operator&=
FUNC b8354 11 0 std::ios_base::flags
FUNC b8366 24 0 std::ios_base::flags
FUNC b838a 5e 0 std::ios_base::setf
FUNC b83e8 2a 0 std::ios_base::width
FUNC b8412 28 0 std::hex
FUNC b843a 6 0 boost::detail::sp_enable_shared_from_this
FUNC b8440 15 0 boost::function_base::function_base
FUNC b8456 17 0 boost::function_base::empty
FUNC b846e 1a 0 boost::function_base::has_trivial_copy_and_destroy
FUNC b8488 a1 0 boost::bad_function_call::bad_function_call
FUNC b8529 b 0 boost::detail::function::has_empty_target
FUNC b8534 35 0 boost::system::error_category::~error_category
FUNC b856a 26 0 boost::system::error_category::~error_category
FUNC b8590 19 0 boost::system::error_category::operator==
FUNC b85aa 26 0 boost::system::error_condition::error_condition
FUNC b85d0 3f 0 boost::system::operator==
FUNC b8610 10 0 boost::system::error_code::value
FUNC b8620 12 0 boost::system::error_code::category
FUNC b8632 50 0 boost::system::error_code::message
FUNC b8682 3c 0 boost::system::error_category::default_error_condition
FUNC b86be 50 0 boost::system::error_category::equivalent
FUNC b870e 54 0 boost::system::error_category::equivalent
FUNC b8762 51 0 boost::system::system_error::~system_error
FUNC b87b4 26 0 boost::system::system_error::~system_error
FUNC b87da 113 0 boost::system::system_error::what
FUNC b88ee 30 0 boost::io::ios_flags_saver::ios_flags_saver
FUNC b891e 1a 0 boost::io::ios_flags_saver::~ios_flags_saver
FUNC b8938 26 0 boost::io::ios_flags_saver::restore
FUNC b895e 1e 0 boost::shared_ptr<const boost::exception_detail::clone_base>::~shared_ptr
FUNC b897c 25 0 boost::exception_ptr::exception_ptr
FUNC b89a2 64 0 boost::exception_detail::bad_alloc_::~bad_alloc_
FUNC b8a10 26 0 boost::exception_detail::bad_alloc_::~bad_alloc_
FUNC b8a3c 64 0 boost::exception_detail::bad_exception_::~bad_exception_
FUNC b8aaa 26 0 boost::exception_detail::bad_exception_::~bad_exception_
FUNC b8ad6 6d 0 boost::exception::exception
FUNC b8b44 1a 0 boost::exception_ptr::~exception_ptr
FUNC b8b5e 25 0 boost::exception_ptr::exception_ptr
FUNC b8b83 b 0 boost::uuids::uuid::static_size
FUNC b8b8e e 0 boost::uuids::uuid::begin
FUNC b8b9c 21 0 boost::uuids::uuid::end
FUNC b8bbe 13 0 boost::uuids::uuid::size
FUNC b8bd1 54 0 boost::uuids::operator==
FUNC b8c25 6a 0 boost::uuids::operator<
FUNC b8c8f 25 0 boost::uuids::operator>
FUNC b8cb4 a 0 boost::asio::detail::noncopyable::noncopyable
FUNC b8cbe a 0 boost::asio::detail::noncopyable::~noncopyable
FUNC b8cc8 b 0 boost::asio::error::get_system_category
FUNC b8cd4 11 0 boost::asio::error::detail::netdb_category::name
FUNC b8ce6 1bd 0 boost::asio::error::detail::netdb_category::message
FUNC b8ea3 62 0 boost::asio::error::get_netdb_category
FUNC b8f06 11 0 boost::asio::error::detail::addrinfo_category::name
FUNC b8f18 10f 0 boost::asio::error::detail::addrinfo_category::message
FUNC b9027 62 0 boost::asio::error::get_addrinfo_category
FUNC b908a 11 0 boost::asio::error::detail::misc_category::name
FUNC b909c 1bd 0 boost::asio::error::detail::misc_category::message
FUNC b9259 62 0 boost::asio::error::get_misc_category
FUNC b92bc 1a 0 boost::asio::io_service::id::id
FUNC b92d6 1e 0 boost::shared_ptr<pong::Character>::~shared_ptr
FUNC b92f4 1a 0 fun::AttributeValue::~AttributeValue
FUNC b930e 1e 0 boost::shared_ptr<pong::User>::~shared_ptr
FUNC b932c 39 0 pong::Character::OpaqueData::OpaqueData
FUNC b9366 1e 0 boost::shared_ptr<pong::Character::OpaqueData>::~shared_ptr
FUNC b9384 26 0 pong::User::OpaqueData::OpaqueData
FUNC b93aa 1a 0 boost::function<boost::uuids::uuid(const boost::shared_ptr<pong::Character>&)>::~function
FUNC b93c4 1a 0 boost::_bi::value<boost::function<boost::uuids::uuid(const boost::shared_ptr<pong::Character>&)> >::~value
FUNC b93de 1e 0 boost::_bi::storage3<boost::arg<1>, boost::_bi::value<boost::uuids::uuid>, boost::_bi::value<boost::function<boost::uuids::uuid(const boost::shared_ptr<pong::Character>&)> > >::~storage3
FUNC b93fc 1a 0 boost::_bi::storage4<boost::arg<1>, boost::_bi::value<boost::uuids::uuid>, boost::_bi::value<boost::function<boost::uuids::uuid(const boost::shared_ptr<pong::Character>&)> >, boost::_bi::value<pong::MatchCondition> >::~storage4
FUNC b9416 1a 0 boost::_bi::list4<boost::arg<1>, boost::_bi::value<boost::uuids::uuid>, boost::_bi::value<boost::function<boost::uuids::uuid(const boost::shared_ptr<pong::Character>&)> >, boost::_bi::value<pong::MatchCondition> >::~list4
FUNC b9430 1e 0 boost::_bi::bind_t<bool, bool (*)(const boost::shared_ptr<pong::Character>&, const boost::uuids::uuid&, const boost::function<boost::uuids::uuid(const boost::shared_ptr<pong::Character>&)>&, pong::MatchCondition), boost::_bi::list4<boost::arg<1>, boost::_bi::value<boost::uuids::uuid>, boost::_bi::value<boost::function<boost::uuids::uuid(const boost::shared_ptr<pong::Character>&)> >, boost::_bi::value<pong::MatchCondition> > >::~bind_t
FUNC b944e 1a 0 boost::function<bool(const boost::shared_ptr<pong::Character>&)>::~function
FUNC b9468 1a 0 boost::function<std::basic_string<char, std::char_traits<char>, std::allocator<char> >(const boost::shared_ptr<pong::Character>&)>::~function
FUNC b9482 1a 0 boost::_bi::value<std::basic_string<char, std::char_traits<char>, std::allocator<char> > >::~value
FUNC b949c 1a 0 boost::_bi::storage2<boost::arg<1>, boost::_bi::value<std::basic_string<char, std::char_traits<char>, std::allocator<char> > > >::~storage2
FUNC b94b6 1a 0 boost::_bi::value<boost::function<std::basic_string<char, std::char_traits<char>, std::allocator<char> >(const boost::shared_ptr<pong::Character>&)> >::~value
FUNC b94d0 2a 0 boost::_bi::storage3<boost::arg<1>, boost::_bi::value<std::basic_string<char, std::char_traits<char>, std::allocator<char> > >, boost::_bi::value<boost::function<std::basic_string<char, std::char_traits<char>, std::allocator<char> >(const boost::shared_ptr<pong::Character>&)> > >::~storage3
FUNC b94fa 1a 0 boost::_bi::storage4<boost::arg<1>, boost::_bi::value<std::basic_string<char, std::char_traits<char>, std::allocator<char> > >, boost::_bi::value<boost::function<std::basic_string<char, std::char_traits<char>, std::allocator<char> >(const boost::shared_ptr<pong::Character>&)> >, boost::_bi::value<pong::MatchCondition> >::~storage4
FUNC b9514 1a 0 boost::_bi::list4<boost::arg<1>, boost::_bi::value<std::basic_string<char, std::char_traits<char>, std::allocator<char> > >, boost::_bi::value<boost::function<std::basic_string<char, std::char_traits<char>, std::allocator<char> >(const boost::shared_ptr<pong::Character>&)> >, boost::_bi::value<pong::MatchCondition> >::~list4
FUNC b952e 1e 0 boost::_bi::bind_t<bool, bool (*)(const boost::shared_ptr<pong::Character>&, const std::basic_string<char, std::char_traits<char>, std::allocator<char> >&, const boost::function<std::basic_string<char, std::char_traits<char>, std::allocator<char> >(const boost::shared_ptr<pong::Character>&)>&, pong::MatchCondition), boost::_bi::list4<boost::arg<1>, boost::_bi::value<std::basic_string<char, std::char_traits<char>, std::allocator<char> > >, boost::_bi::value<boost::function<std::basic_string<char, std::char_traits<char>, std::allocator<char> >(const boost::shared_ptr<pong::Character>&)> >, boost::_bi::value<pong::MatchCondition> > >::~bind_t
FUNC b954c 1a 0 boost::function<long int(const boost::shared_ptr<pong::Character>&)>::~function
FUNC b9566 1a 0 boost::_bi::value<boost::function<long int(const boost::shared_ptr<pong::Character>&)> >::~value
FUNC b9580 1e 0 boost::_bi::storage3<boost::arg<1>, boost::_bi::value<long int>, boost::_bi::value<boost::function<long int(const boost::shared_ptr<pong::Character>&)> > >::~storage3
FUNC b959e 1a 0 boost::_bi::storage4<boost::arg<1>, boost::_bi::value<long int>, boost::_bi::value<boost::function<long int(const boost::shared_ptr<pong::Character>&)> >, boost::_bi::value<pong::MatchCondition> >::~storage4
FUNC b95b8 1a 0 boost::_bi::list4<boost::arg<1>, boost::_bi::value<long int>, boost::_bi::value<boost::function<long int(const boost::shared_ptr<pong::Character>&)> >, boost::_bi::value<pong::MatchCondition> >::~list4
FUNC b95d2 1e 0 boost::_bi::bind_t<bool, bool (*)(const boost::shared_ptr<pong::Character>&, long int const&, const boost::function<long int(const boost::shared_ptr<pong::Character>&)>&, pong::MatchCondition), boost::_bi::list4<boost::arg<1>, boost::_bi::value<long int>, boost::_bi::value<boost::function<long int(const boost::shared_ptr<pong::Character>&)> >, boost::_bi::value<pong::MatchCondition> > >::~bind_t
FUNC b95f0 1a 0 std::map<std::basic_string<char, std::char_traits<char>, std::allocator<char> >, boost::shared_ptr<fun::AttributeValue>, std::less<std::basic_string<char, std::char_traits<char>, std::allocator<char> > >, std::allocator<std::pair<const std::basic_string<char, std::char_traits<char>, std::allocator<char> >, boost::shared_ptr<fun::AttributeValue> > > >::~map
FUNC b960a 1e 0 boost::shared_ptr<fun::Object>::~shared_ptr
FUNC b9628 e 0 std::forward<boost::uuids::uuid&>
FUNC b9636 e 0 std::forward<boost::shared_ptr<pong::Character>&>
FUNC b9644 53 0 std::pair<boost::uuids::uuid, boost::shared_ptr<pong::Character> >::pair<boost::uuids::uuid&, boost::shared_ptr<pong::Character>&, void>
FUNC b9698 1e 0 std::pair<boost::uuids::uuid, boost::shared_ptr<pong::Character> >::~pair
FUNC b96b6 43 0 std::pair<boost::uuids::uuid, boost::shared_ptr<pong::Character> >::pair
FUNC b96f9 50 0 std::make_pair<boost::uuids::uuid&, boost::shared_ptr<pong::Character>&>
FUNC b974a 1e 0 boost::shared_ptr<fun::AttributeValue>::~shared_ptr
FUNC b9768 e 0 std::forward<const std::basic_string<char>&>
FUNC b9776 48 0 std::pair<std::basic_string<char, std::char_traits<char>, std::allocator<char> >, boost::shared_ptr<pong::Character> >::pair<boost::shared_ptr<pong::Character>&, void>
FUNC b97be 2a 0 std::pair<std::basic_string<char, std::char_traits<char>, std::allocator<char> >, boost::shared_ptr<pong::Character> >::~pair
FUNC b97e8 40 0 std::pair<std::basic_string<char, std::char_traits<char>, std::allocator<char> >, boost::shared_ptr<pong::Character> >::pair
FUNC b9828 50 0 std::make_pair<const std::basic_string<char>&, boost::shared_ptr<pong::Character>&>
FUNC b9878 1a 0 boost::function<boost::uuids::uuid(const boost::shared_ptr<pong::User>&)>::~function
FUNC b9892 1a 0 boost::_bi::value<boost::function<boost::uuids::uuid(const boost::shared_ptr<pong::User>&)> >::~value
FUNC b98ac 1e 0 boost::_bi::storage3<boost::arg<1>, boost::_bi::value<boost::uuids::uuid>, boost::_bi::value<boost::function<boost::uuids::uuid(const boost::shared_ptr<pong::User>&)> > >::~storage3
FUNC b98ca 1a 0 boost::_bi::storage4<boost::arg<1>, boost::_bi::value<boost::uuids::uuid>, boost::_bi::value<boost::function<boost::uuids::uuid(const boost::shared_ptr<pong::User>&)> >, boost::_bi::value<pong::MatchCondition> >::~storage4
FUNC b98e4 1a 0 boost::_bi::list4<boost::arg<1>, boost::_bi::value<boost::uuids::uuid>, boost::_bi::value<boost::function<boost::uuids::uuid(const boost::shared_ptr<pong::User>&)> >, boost::_bi::value<pong::MatchCondition> >::~list4
FUNC b98fe 1e 0 boost::_bi::bind_t<bool, bool (*)(const boost::shared_ptr<pong::User>&, const boost::uuids::uuid&, const boost::function<boost::uuids::uuid(const boost::shared_ptr<pong::User>&)>&, pong::MatchCondition), boost::_bi::list4<boost::arg<1>, boost::_bi::value<boost::uuids::uuid>, boost::_bi::value<boost::function<boost::uuids::uuid(const boost::shared_ptr<pong::User>&)> >, boost::_bi::value<pong::MatchCondition> > >::~bind_t
FUNC b991c 1a 0 boost::function<std::basic_string<char, std::char_traits<char>, std::allocator<char> >(const boost::shared_ptr<pong::User>&)>::~function
FUNC b9936 1a 0 boost::_bi::value<boost::function<std::basic_string<char, std::char_traits<char>, std::allocator<char> >(const boost::shared_ptr<pong::User>&)> >::~value
FUNC b9950 2a 0 boost::_bi::storage3<boost::arg<1>, boost::_bi::value<std::basic_string<char, std::char_traits<char>, std::allocator<char> > >, boost::_bi::value<boost::function<std::basic_string<char, std::char_traits<char>, std::allocator<char> >(const boost::shared_ptr<pong::User>&)> > >::~storage3
FUNC b997a 1a 0 boost::_bi::storage4<boost::arg<1>, boost::_bi::value<std::basic_string<char, std::char_traits<char>, std::allocator<char> > >, boost::_bi::value<boost::function<std::basic_string<char, std::char_traits<char>, std::allocator<char> >(const boost::shared_ptr<pong::User>&)> >, boost::_bi::value<pong::MatchCondition> >::~storage4
FUNC b9994 1a 0 boost::_bi::list4<boost::arg<1>, boost::_bi::value<std::basic_string<char, std::char_traits<char>, std::allocator<char> > >, boost::_bi::value<boost::function<std::basic_string<char, std::char_traits<char>, std::allocator<char> >(const boost::shared_ptr<pong::User>&)> >, boost::_bi::value<pong::MatchCondition> >::~list4
FUNC b99ae 1e 0 boost::_bi::bind_t<bool, bool (*)(const boost::shared_ptr<pong::User>&, const std::basic_string<char, std::char_traits<char>, std::allocator<char> >&, const boost::function<std::basic_string<char, std::char_traits<char>, std::allocator<char> >(const boost::shared_ptr<pong::User>&)>&, pong::MatchCondition), boost::_bi::list4<boost::arg<1>, boost::_bi::value<std::basic_string<char, std::char_traits<char>, std::allocator<char> > >, boost::_bi::value<boost::function<std::basic_string<char, std::char_traits<char>, std::allocator<char> >(const boost::shared_ptr<pong::User>&)> >, boost::_bi::value<pong::MatchCondition> > >::~bind_t
FUNC b99cc 1a 0 boost::function<boost::shared_ptr<pong::Character>(const boost::shared_ptr<pong::User>&)>::~function
FUNC b99e6 1a 0 boost::_bi::value<boost::function<bool(const boost::shared_ptr<pong::Character>&)> >::~value
FUNC b9a00 1a 0 boost::_bi::storage2<boost::arg<1>, boost::_bi::value<boost::function<bool(const boost::shared_ptr<pong::Character>&)> > >::~storage2
FUNC b9a1a 1a 0 boost::_bi::value<boost::function<boost::shared_ptr<pong::Character>(const boost::shared_ptr<pong::User>&)> >::~value
FUNC b9a34 2a 0 boost::_bi::storage3<boost::arg<1>, boost::_bi::value<boost::function<bool(const boost::shared_ptr<pong::Character>&)> >, boost::_bi::value<boost::function<boost::shared_ptr<pong::Character>(const boost::shared_ptr<pong::User>&)> > >::~storage3
FUNC b9a5e 1a 0 boost::_bi::list3<boost::arg<1>, boost::_bi::value<boost::function<bool(const boost::shared_ptr<pong::Character>&)> >, boost::_bi::value<boost::function<boost::shared_ptr<pong::Character>(const boost::shared_ptr<pong::User>&)> > >::~list3
FUNC b9a78 1e 0 boost::_bi::bind_t<bool, bool (*)(const boost::shared_ptr<pong::User>&, const boost::function<bool(const boost::shared_ptr<pong::Character>&)>&, const boost::function<boost::shared_ptr<pong::Character>(const boost::shared_ptr<pong::User>&)>&), boost::_bi::list3<boost::arg<1>, boost::_bi::value<boost::function<bool(const boost::shared_ptr<pong::Character>&)> >, boost::_bi::value<boost::function<boost::shared_ptr<pong::Character>(const boost::shared_ptr<pong::User>&)> > > >::~bind_t
FUNC b9a96 1a 0 boost::function<long int(const boost::shared_ptr<pong::User>&)>::~function
FUNC b9ab0 1a 0 boost::_bi::value<boost::function<long int(const boost::shared_ptr<pong::User>&)> >::~value
FUNC b9aca 1e 0 boost::_bi::storage3<boost::arg<1>, boost::_bi::value<long int>, boost::_bi::value<boost::function<long int(const boost::shared_ptr<pong::User>&)> > >::~storage3
FUNC b9ae8 1a 0 boost::_bi::storage4<boost::arg<1>, boost::_bi::value<long int>, boost::_bi::value<boost::function<long int(const boost::shared_ptr<pong::User>&)> >, boost::_bi::value<pong::MatchCondition> >::~storage4
FUNC b9b02 1a 0 boost::_bi::list4<boost::arg<1>, boost::_bi::value<long int>, boost::_bi::value<boost::function<long int(const boost::shared_ptr<pong::User>&)> >, boost::_bi::value<pong::MatchCondition> >::~list4
FUNC b9b1c 1e 0 boost::_bi::bind_t<bool, bool (*)(const boost::shared_ptr<pong::User>&, long int const&, const boost::function<long int(const boost::shared_ptr<pong::User>&)>&, pong::MatchCondition), boost::_bi::list4<boost::arg<1>, boost::_bi::value<long int>, boost::_bi::value<boost::function<long int(const boost::shared_ptr<pong::User>&)> >, boost::_bi::value<pong::MatchCondition> > >::~bind_t
FUNC b9b3a 1e 0 boost::shared_ptr<pong::User::OpaqueData>::~shared_ptr
FUNC b9b58 e 0 std::forward<boost::shared_ptr<pong::User>&>
FUNC b9b66 53 0 std::pair<boost::uuids::uuid, boost::shared_ptr<pong::User> >::pair<boost::uuids::uuid&, boost::shared_ptr<pong::User>&, void>
FUNC b9bba 1e 0 std::pair<boost::uuids::uuid, boost::shared_ptr<pong::User> >::~pair
FUNC b9bd8 43 0 std::pair<boost::uuids::uuid, boost::shared_ptr<pong::User> >::pair
FUNC b9c1b 50 0 std::make_pair<boost::uuids::uuid&, boost::shared_ptr<pong::User>&>
FUNC b9c6c 48 0 std::pair<std::basic_string<char, std::char_traits<char>, std::allocator<char> >, boost::shared_ptr<pong::User> >::pair<boost::shared_ptr<pong::User>&, void>
FUNC b9cb4 2a 0 std::pair<std::basic_string<char, std::char_traits<char>, std::allocator<char> >, boost::shared_ptr<pong::User> >::~pair
FUNC b9cde 40 0 std::pair<std::basic_string<char, std::char_traits<char>, std::allocator<char> >, boost::shared_ptr<pong::User> >::pair
FUNC b9d1e 50 0 std::make_pair<const std::basic_string<char>&, boost::shared_ptr<pong::User>&>
FUNC b9d6e 1e 0 boost::shared_ptr<const fun::AttributeModel>::~shared_ptr
FUNC b9d8c 1e 0 boost::shared_ptr<const fun::ObjectModel>::~shared_ptr
FUNC b9daa 15 0 boost::exception_detail::refcount_ptr<boost::exception_detail::error_info_container>::refcount_ptr
FUNC b9dc0 1a 0 boost::exception_detail::refcount_ptr<boost::exception_detail::error_info_container>::~refcount_ptr
FUNC b9dda 11 0 boost::exception_detail::refcount_ptr<boost::exception_detail::error_info_container>::get
FUNC b9dec 2c 0 boost::exception_detail::refcount_ptr<boost::exception_detail::error_info_container>::operator=
FUNC b9e18 20 0 boost::exception_detail::clone_base::clone_base
FUNC b9e38 a 0 boost::arg<1>::arg
FUNC b9e42 a 0 boost::arg<2>::arg
FUNC b9e4c a 0 boost::arg<3>::arg
FUNC b9e56 a 0 boost::arg<4>::arg
FUNC b9e60 a 0 boost::arg<5>::arg
FUNC b9e6a a 0 boost::arg<6>::arg
FUNC b9e74 a 0 boost::arg<7>::arg
FUNC b9e7e a 0 boost::arg<8>::arg
FUNC b9e88 a 0 boost::arg<9>::arg
FUNC b9e92 74 0 std::runtime_error::runtime_error
FUNC b9f06 a 0 std::_Tuple_impl<1ul>::_Tuple_impl
FUNC b9f10 35 0 boost::exception_detail::refcount_ptr<boost::exception_detail::error_info_container>::adopt
FUNC b9f46 2c 0 boost::exception_detail::refcount_ptr<boost::exception_detail::error_info_container>::refcount_ptr
FUNC b9f72 3b 0 boost::shared_ptr<const boost::exception_detail::clone_base>::shared_ptr
FUNC b9fae 4f 0 boost::exception_detail::bad_alloc_::bad_alloc_
FUNC b9ffe 37 0 std::bad_alloc::bad_alloc
FUNC ba036 65 0 boost::exception_detail::bad_alloc_::bad_alloc_
FUNC ba09c b8 0 boost::exception_detail::clone_impl<boost::exception_detail::bad_alloc_>::clone_impl
FUNC ba154 211 0 boost::exception_detail::get_static_exception_object<boost::exception_detail::bad_alloc_>
FUNC ba366 4f 0 boost::exception_detail::bad_exception_::bad_exception_
FUNC ba3b6 37 0 std::bad_exception::bad_exception
FUNC ba3ee 65 0 boost::exception_detail::bad_exception_::bad_exception_
FUNC ba454 b8 0 boost::exception_detail::clone_impl<boost::exception_detail::bad_exception_>::clone_impl
FUNC ba50c 211 0 boost::exception_detail::get_static_exception_object<boost::exception_detail::bad_exception_>
FUNC ba71d e 0 std::move<std::basic_string<char>&>
FUNC ba72c 41 0 boost::bad_function_call::~bad_function_call
FUNC ba76e 26 0 boost::bad_function_call::~bad_function_call
FUNC ba794 58 0 std::equal<unsigned char const*, unsigned char const*>
FUNC ba7ec 72 0 std::lexicographical_compare<unsigned char const*, unsigned char const*>
FUNC ba85e 1a 0 boost::asio::detail::tss_ptr<boost::asio::detail::call_stack<boost::asio::detail::task_io_service, boost::asio::detail::task_io_service_thread_info>::context>::tss_ptr
FUNC ba878 1a 0 boost::asio::io_service::id::~id
FUNC ba892 1a 0 boost::asio::detail::service_id<boost::asio::detail::epoll_reactor>::service_id
FUNC ba8ac 1a 0 boost::asio::detail::service_id<boost::asio::detail::task_io_service>::service_id
FUNC ba8c6 84 0 std::operator==<char>
FUNC ba94a 28 0 std::operator< <char, std::char_traits<char>, std::allocator<char> >
FUNC ba972 1a 0 boost::asio::detail::tss_ptr<boost::asio::detail::call_stack<boost::asio::detail::strand_service::strand_impl>::context>::tss_ptr
FUNC ba98c 1a 0 boost::asio::detail::service_id<boost::asio::detail::strand_service>::service_id
FUNC ba9a6 a 0 boost::detail::is_static_visitor_tag::is_static_visitor_tag
FUNC ba9b0 1a 0 boost::static_visitor<void>::static_visitor
FUNC ba9ca a 0 boost::static_visitor<void>::~static_visitor
FUNC ba9d4 3b 0 boost::shared_ptr<pong::Character>::shared_ptr
FUNC baa10 56 0 boost::shared_ptr<pong::Character>::shared_ptr
FUNC baa66 17 0 boost::shared_ptr<pong::Character>::operator!
FUNC baa7e 2a 0 boost::variant<fun::AttributeValue::kNull, bool, long int, double, std::basic_string<char, std::char_traits<char>, std::allocator<char> >, boost::uuids::uuid, boost::detail::variant::void_, boost::detail::variant::void_, boost::detail::variant::void_, boost::detail::variant::void_, boost::detail::variant::void_, boost::detail::variant::void_, boost::detail::variant::void_, boost::detail::variant::void_, boost::detail::variant::void_, boost::detail::variant::void_, boost::detail::variant::void_, boost::detail::variant::void_, boost::detail::variant::void_, boost::detail::variant::void_>::~variant
FUNC baaa8 40 0 boost::shared_ptr<pong::Character>::operator->
FUNC baae8 3b 0 boost::shared_ptr<pong::User>::shared_ptr
FUNC bab24 56 0 boost::shared_ptr<pong::User>::shared_ptr
FUNC bab7a 17 0 boost::shared_ptr<pong::User>::operator!
FUNC bab92 40 0 boost::shared_ptr<pong::User>::operator->
FUNC babd2 40 0 boost::shared_ptr<fun::Object>::operator->
FUNC bac12 17 0 boost::shared_ptr<pong::Character>::operator bool
FUNC bac2a 17 0 boost::shared_ptr<pong::User>::operator bool
FUNC bac42 33 0 pong::ArrayRef<bool>::Size
FUNC bac76 33 0 pong::ArrayRef<long int>::Size
FUNC bacaa 33 0 pong::ArrayRef<double>::Size
FUNC bacde 33 0 pong::ArrayRef<std::basic_string<char, std::char_traits<char>, std::allocator<char> > >::Size
FUNC bad12 33 0 pong::ArrayRef<boost::uuids::uuid>::Size
FUNC bad46 33 0 pong::ArrayRef<boost::shared_ptr<pong::Character> >::Size
FUNC bad7a 33 0 pong::ArrayRef<boost::shared_ptr<pong::User> >::Size
FUNC badae 13f 0 std::vector<boost::uuids::uuid, std::allocator<boost::uuids::uuid> >::reserve
FUNC baeed e 0 std::move<boost::uuids::uuid&>
FUNC baefc 30 0 std::vector<boost::uuids::uuid, std::allocator<boost::uuids::uuid> >::push_back
FUNC baf2c 29 0 boost::shared_ptr<pong::Character::OpaqueData>::shared_ptr
FUNC baf56 29 0 boost::shared_ptr<pong::Character>::shared_ptr
FUNC baf80 29 0 boost::weak_ptr<pong::Character>::weak_ptr
FUNC bafa9 62 0 boost::bind<const boost::uuids::uuid&, pong::Character, boost::arg<1> >
FUNC bb00c 3c 0 boost::function<boost::uuids::uuid(const boost::shared_ptr<pong::Character>&)>::function<boost::_bi::bind_t<const boost::uuids::uuid&, boost::_mfi::cmf0<const boost::uuids::uuid&, pong::Character>, boost::_bi::list1<boost::arg<1> > > >
FUNC bb048 1a 0 boost::function1<boost::uuids::uuid, const boost::shared_ptr<pong::Character>&>::~function1
FUNC bb062 120 0 pong::CompareAttribute<pong::Character, boost::uuids::uuid>
FUNC bb182 25 0 boost::function<boost::uuids::uuid(const boost::shared_ptr<pong::Character>&)>::function
FUNC bb1a7 135 0 boost::bind<bool, const boost::shared_ptr<pong::Character>&, const boost::uuids::uuid&, const boost::function<boost::uuids::uuid(const boost::shared_ptr<pong::Character>&)>&, pong::MatchCondition, boost::arg<1>, boost::uuids::uuid, boost::function<boost::uuids::uuid(const boost::shared_ptr<pong::Character>&)>, pong::MatchCondition>
FUNC bb2dc 25 0 boost::_bi::value<boost::function<boost::uuids::uuid(const boost::shared_ptr<pong::Character>&)> >::value
FUNC bb302 43 0 boost::_bi::storage3<boost::arg<1>, boost::_bi::value<boost::uuids::uuid>, boost::_bi::value<boost::function<boost::uuids::uuid(const boost::shared_ptr<pong::Character>&)> > >::storage3
FUNC bb346 33 0 boost::_bi::storage4<boost::arg<1>, boost::_bi::value<boost::uuids::uuid>, boost::_bi::value<boost::function<boost::uuids::uuid(const boost::shared_ptr<pong::Character>&)> >, boost::_bi::value<pong::MatchCondition> >::storage4
FUNC bb37a 25 0 boost::_bi::list4<boost::arg<1>, boost::_bi::value<boost::uuids::uuid>, boost::_bi::value<boost::function<boost::uuids::uuid(const boost::shared_ptr<pong::Character>&)> >, boost::_bi::value<pong::MatchCondition> >::list4
FUNC bb3a0 3b 0 boost::_bi::bind_t<bool, bool (*)(const boost::shared_ptr<pong::Character>&, const boost::uuids::uuid&, const boost::function<boost::uuids::uuid(const boost::shared_ptr<pong::Character>&)>&, pong::MatchCondition), boost::_bi::list4<boost::arg<1>, boost::_bi::value<boost::uuids::uuid>, boost::_bi::value<boost::function<boost::uuids::uuid(const boost::shared_ptr<pong::Character>&)> >, boost::_bi::value<pong::MatchCondition> > >::bind_t
FUNC bb3dc 91 0 boost::function<bool(const boost::shared_ptr<pong::Character>&)>::function<boost::_bi::bind_t<bool, bool (*)(const boost::shared_ptr<pong::Character>&, const boost::uuids::uuid&, const boost::function<boost::uuids::uuid(const boost::shared_ptr<pong::Character>&)>&, pong::MatchCondition), boost::_bi::list4<boost::arg<1>, boost::_bi::value<boost::uuids::uuid>, boost::_bi::value<boost::function<boost::uuids::uuid(const boost::shared_ptr<pong::Character>&)> >, boost::_bi::value<pong::MatchCondition> > > >
FUNC bb46e 1a 0 boost::function1<bool, const boost::shared_ptr<pong::Character>&>::~function1
FUNC bb488 62 0 boost::bind<std::basic_string<char>, pong::Character, boost::arg<1> >
FUNC bb4ea 3c 0 boost::function<std::basic_string<char, std::char_traits<char>, std::allocator<char> >(const boost::shared_ptr<pong::Character>&)>::function<boost::_bi::bind_t<std::basic_string<char>, boost::_mfi::cmf0<std::basic_string<char>, pong::Character>, boost::_bi::list1<boost::arg<1> > > >
FUNC bb526 1a 0 boost::function1<std::basic_string<char, std::char_traits<char>, std::allocator<char> >, const boost::shared_ptr<pong::Character>&>::~function1
FUNC bb540 153 0 pong::CompareAttribute<pong::Character, std::basic_string<char> >
FUNC bb694 25 0 boost::function<std::basic_string<char, std::char_traits<char>, std::allocator<char> >(const boost::shared_ptr<pong::Character>&)>::function
FUNC bb6b9 11b 0 boost::bind<bool, const boost::shared_ptr<pong::Character>&, const std::basic_string<char>&, const boost::function<std::basic_string<char>(const boost::shared_ptr<pong::Character>&)>&, pong::MatchCondition, boost::arg<1>, std::basic_string<char>, boost::function<std::basic_string<char>(const boost::shared_ptr<pong::Character>&)>, pong::MatchCondition>
FUNC bb7d4 25 0 boost::_bi::value<std::basic_string<char, std::char_traits<char>, std::allocator<char> > >::value
FUNC bb7fa 25 0 boost::_bi::storage2<boost::arg<1>, boost::_bi::value<std::basic_string<char, std::char_traits<char>, std::allocator<char> > > >::storage2
FUNC bb820 25 0 boost::_bi::value<boost::function<std::basic_string<char, std::char_traits<char>, std::allocator<char> >(const boost::shared_ptr<pong::Character>&)> >::value
FUNC bb846 62 0 boost::_bi::storage3<boost::arg<1>, boost::_bi::value<std::basic_string<char, std::char_traits<char>, std::allocator<char> > >, boost::_bi::value<boost::function<std::basic_string<char, std::char_traits<char>, std::allocator<char> >(const boost::shared_ptr<pong::Character>&)> > >::storage3
FUNC bb8a8 33 0 boost::_bi::storage4<boost::arg<1>, boost::_bi::value<std::basic_string<char, std::char_traits<char>, std::allocator<char> > >, boost::_bi::value<boost::function<std::basic_string<char, std::char_traits<char>, std::allocator<char> >(const boost::shared_ptr<pong::Character>&)> >, boost::_bi::value<pong::MatchCondition> >::storage4
FUNC bb8dc 25 0 boost::_bi::list4<boost::arg<1>, boost::_bi::value<std::basic_string<char, std::char_traits<char>, std::allocator<char> > >, boost::_bi::value<boost::function<std::basic_string<char, std::char_traits<char>, std::allocator<char> >(const boost::shared_ptr<pong::Character>&)> >, boost::_bi::value<pong::MatchCondition> >::list4
FUNC bb902 3b 0 boost::_bi::bind_t<bool, bool (*)(const boost::shared_ptr<pong::Character>&, const std::basic_string<char, std::char_traits<char>, std::allocator<char> >&, const boost::function<std::basic_string<char, std::char_traits<char>, std::allocator<char> >(const boost::shared_ptr<pong::Character>&)>&, pong::MatchCondition), boost::_bi::list4<boost::arg<1>, boost::_bi::value<std::basic_string<char, std::char_traits<char>, std::allocator<char> > >, boost::_bi::value<boost::function<std::basic_string<char, std::char_traits<char>, std::allocator<char> >(const boost::shared_ptr<pong::Character>&)> >, boost::_bi::value<pong::MatchCondition> > >::bind_t
FUNC bb93e 6e 0 boost::function<bool(const boost::shared_ptr<pong::Character>&)>::function<boost::_bi::bind_t<bool, bool (*)(const boost::shared_ptr<pong::Character>&, const std::basic_string<char>&, const boost::function<std::basic_string<char>(const boost::shared_ptr<pong::Character>&)>&, pong::MatchCondition), boost::_bi::list4<boost::arg<1>, boost::_bi::value<std::basic_string<char> >, boost::_bi::value<boost::function<std::basic_string<char>(const boost::shared_ptr<pong::Character>&)> >, boost::_bi::value<pong::MatchCondition> > > >
FUNC bb9ac 62 0 boost::bind<long int, pong::Character, boost::arg<1> >
FUNC bba0e 3c 0 boost::function<long int(const boost::shared_ptr<pong::Character>&)>::function<boost::_bi::bind_t<long int, boost::_mfi::cmf0<long int, pong::Character>, boost::_bi::list1<boost::arg<1> > > >
FUNC bba4a 1a 0 boost::function1<long int, const boost::shared_ptr<pong::Character>&>::~function1
FUNC bba64 d0 0 pong::CompareAttribute<pong::Character, long int>
FUNC bbb34 25 0 boost::function<long int(const boost::shared_ptr<pong::Character>&)>::function
FUNC bbb59 fe 0 boost::bind<bool, const boost::shared_ptr<pong::Character>&, long int const&, const boost::function<long int(const boost::shared_ptr<pong::Character>&)>&, pong::MatchCondition, boost::arg<1>, long int, boost::function<long int(const boost::shared_ptr<pong::Character>&)>, pong::MatchCondition>
FUNC bbc58 25 0 boost::_bi::value<boost::function<long int(const boost::shared_ptr<pong::Character>&)> >::value
FUNC bbc7e 3b 0 boost::_bi::storage3<boost::arg<1>, boost::_bi::value<long int>, boost::_bi::value<boost::function<long int(const boost::shared_ptr<pong::Character>&)> > >::storage3
FUNC bbcba 33 0 boost::_bi::storage4<boost::arg<1>, boost::_bi::value<long int>, boost::_bi::value<boost::function<long int(const boost::shared_ptr<pong::Character>&)> >, boost::_bi::value<pong::MatchCondition> >::storage4
FUNC bbcee 25 0 boost::_bi::list4<boost::arg<1>, boost::_bi::value<long int>, boost::_bi::value<boost::function<long int(const boost::shared_ptr<pong::Character>&)> >, boost::_bi::value<pong::MatchCondition> >::list4
FUNC bbd14 3b 0 boost::_bi::bind_t<bool, bool (*)(const boost::shared_ptr<pong::Character>&, long int const&, const boost::function<long int(const boost::shared_ptr<pong::Character>&)>&, pong::MatchCondition), boost::_bi::list4<boost::arg<1>, boost::_bi::value<long int>, boost::_bi::value<boost::function<long int(const boost::shared_ptr<pong::Character>&)> >, boost::_bi::value<pong::MatchCondition> > >::bind_t
FUNC bbd50 6e 0 boost::function<bool(const boost::shared_ptr<pong::Character>&)>::function<boost::_bi::bind_t<bool, bool (*)(const boost::shared_ptr<pong::Character>&, long int const&, const boost::function<long int(const boost::shared_ptr<pong::Character>&)>&, pong::MatchCondition), boost::_bi::list4<boost::arg<1>, boost::_bi::value<long int>, boost::_bi::value<boost::function<long int(const boost::shared_ptr<pong::Character>&)> >, boost::_bi::value<pong::MatchCondition> > > >
FUNC bbdbe 56 0 boost::shared_ptr<pong::Character::OpaqueData>::shared_ptr
FUNC bbe14 6e 0 boost::shared_ptr<pong::Character::OpaqueData>::shared_ptr<pong::Character::OpaqueData>
FUNC bbe82 40 0 boost::shared_ptr<pong::Character::OpaqueData>::operator->
FUNC bbec2 1a 0 std::map<std::basic_string<char, std::char_traits<char>, std::allocator<char> >, boost::shared_ptr<fun::AttributeValue>, std::less<std::basic_string<char, std::char_traits<char>, std::allocator<char> > >, std::allocator<std::pair<const std::basic_string<char, std::char_traits<char>, std::allocator<char> >, boost::shared_ptr<fun::AttributeValue> > > >::map
FUNC bbedc 1a 0 std::_Rb_tree<std::basic_string<char, std::char_traits<char>, std::allocator<char> >, std::pair<const std::basic_string<char, std::char_traits<char>, std::allocator<char> >, boost::shared_ptr<fun::AttributeValue> >, std::_Select1st<std::pair<const std::basic_string<char, std::char_traits<char>, std::allocator<char> >, boost::shared_ptr<fun::AttributeValue> > >, std::less<std::basic_string<char, std::char_traits<char>, std::allocator<char> > >, std::allocator<std::pair<const std::basic_string<char, std::char_traits<char>, std::allocator<char> >, boost::shared_ptr<fun::AttributeValue> > > >::_Rb_tree_impl<std::less<std::basic_string<char, std::char_traits<char>, std::allocator<char> > >, true>::~_Rb_tree_impl
FUNC bbef6 38 0 std::_Rb_tree<std::basic_string<char, std::char_traits<char>, std::allocator<char> >, std::pair<const std::basic_string<char, std::char_traits<char>, std::allocator<char> >, boost::shared_ptr<fun::AttributeValue> >, std::_Select1st<std::pair<const std::basic_string<char, std::char_traits<char>, std::allocator<char> >, boost::shared_ptr<fun::AttributeValue> > >, std::less<std::basic_string<char, std::char_traits<char>, std::allocator<char> > >, std::allocator<std::pair<const std::basic_string<char, std::char_traits<char>, std::allocator<char> >, boost::shared_ptr<fun::AttributeValue> > > >::~_Rb_tree
FUNC bbf2e 132 0 std::map<std::basic_string<char, std::char_traits<char>, std::allocator<char> >, boost::shared_ptr<fun::AttributeValue>, std::less<std::basic_string<char, std::char_traits<char>, std::allocator<char> > >, std::allocator<std::pair<const std::basic_string<char, std::char_traits<char>, std::allocator<char> >, boost::shared_ptr<fun::AttributeValue> > > >::operator[]
FUNC bc060 77 0 boost::shared_ptr<fun::AttributeValue>::reset<fun::AttributeValue>
FUNC bc0d8 17 0 boost::shared_ptr<const fun::ObjectModel>::operator bool
FUNC bc0f0 3b 0 boost::shared_ptr<fun::Object>::shared_ptr
FUNC bc12c 17 0 boost::shared_ptr<fun::Object>::operator!
FUNC bc144 6e 0 boost::shared_ptr<pong::Character>::shared_ptr<pong::Character>
FUNC bc1b2 56 0 boost::shared_ptr<fun::Object>::shared_ptr
FUNC bc208 41 0 std::vector<std::pair<boost::uuids::uuid, boost::shared_ptr<pong::Character> >, std::allocator<std::pair<boost::uuids::uuid, boost::shared_ptr<pong::Character> > > >::empty
FUNC bc24a 1a 0 std::vector<std::pair<boost::uuids::uuid, boost::shared_ptr<fun::Object> >, std::allocator<std::pair<boost::uuids::uuid, boost::shared_ptr<fun::Object> > > >::vector
FUNC bc264 43 0 std::vector<std::pair<boost::uuids::uuid, boost::shared_ptr<fun::Object> >, std::allocator<std::pair<boost::uuids::uuid, boost::shared_ptr<fun::Object> > > >::~vector
FUNC bc2a8 26 0 std::vector<boost::uuids::uuid, std::allocator<boost::uuids::uuid> >::size
FUNC bc2ce 13f 0 std::vector<std::pair<boost::uuids::uuid, boost::shared_ptr<fun::Object> >, std::allocator<std::pair<boost::uuids::uuid, boost::shared_ptr<fun::Object> > > >::reserve
FUNC bc40e 26 0 std::vector<std::pair<boost::uuids::uuid, boost::shared_ptr<fun::Object> >, std::allocator<std::pair<boost::uuids::uuid, boost::shared_ptr<fun::Object> > > >::size
FUNC bc434 13f 0 std::vector<std::pair<boost::uuids::uuid, boost::shared_ptr<pong::Character> >, std::allocator<std::pair<boost::uuids::uuid, boost::shared_ptr<pong::Character> > > >::reserve
FUNC bc574 20 0 std::vector<std::pair<boost::uuids::uuid, boost::shared_ptr<fun::Object> >, std::allocator<std::pair<boost::uuids::uuid, boost::shared_ptr<fun::Object> > > >::operator[]
FUNC bc594 17 0 boost::shared_ptr<fun::Object>::operator bool
FUNC bc5ac 77 0 boost::shared_ptr<pong::Character>::reset<pong::Character>
FUNC bc623 e 0 std::move<std::pair<boost::uuids::uuid, boost::shared_ptr<pong::Character> >&>
FUNC bc632 30 0 std::vector<std::pair<boost::uuids::uuid, boost::shared_ptr<pong::Character> >, std::allocator<std::pair<boost::uuids::uuid, boost::shared_ptr<pong::Character> > > >::push_back
FUNC bc662 26 0 std::vector<std::pair<boost::uuids::uuid, boost::shared_ptr<pong::Character> >, std::allocator<std::pair<boost::uuids::uuid, boost::shared_ptr<pong::Character> > > >::size
FUNC bc688 6e 0 boost::shared_ptr<fun::AttributeValue>::shared_ptr<fun::AttributeValue>
FUNC bc6f6 41 0 std::vector<std::pair<std::basic_string<char, std::char_traits<char>, std::allocator<char> >, boost::shared_ptr<pong::Character> >, std::allocator<std::pair<std::basic_string<char, std::char_traits<char>, std::allocator<char> >, boost::shared_ptr<pong::Character> > > >::empty
FUNC bc738 1a 0 std::vector<boost::shared_ptr<fun::AttributeValue>, std::allocator<boost::shared_ptr<fun::AttributeValue> > >::vector
FUNC bc752 43 0 std::vector<boost::shared_ptr<fun::AttributeValue>, std::allocator<boost::shared_ptr<fun::AttributeValue> > >::~vector
FUNC bc796 26 0 std::vector<std::basic_string<char, std::char_traits<char>, std::allocator<char> >, std::allocator<std::basic_string<char, std::char_traits<char>, std::allocator<char> > > >::size
FUNC bc7bc 13f 0 std::vector<boost::shared_ptr<fun::AttributeValue>, std::allocator<boost::shared_ptr<fun::AttributeValue> > >::reserve
FUNC bc8fc 20 0 std::vector<std::basic_string<char, std::char_traits<char>, std::allocator<char> >, std::allocator<std::basic_string<char, std::char_traits<char>, std::allocator<char> > > >::operator[]
FUNC bc91c e 0 std::move<boost::shared_ptr<fun::AttributeValue>&>
FUNC bc92a 30 0 std::vector<boost::shared_ptr<fun::AttributeValue>, std::allocator<boost::shared_ptr<fun::AttributeValue> > >::push_back
FUNC bc95a 1a 0 std::vector<std::pair<boost::shared_ptr<fun::AttributeValue>, boost::shared_ptr<fun::Object> >, std::allocator<std::pair<boost::shared_ptr<fun::AttributeValue>, boost::shared_ptr<fun::Object> > > >::vector
FUNC bc974 43 0 std::vector<std::pair<boost::shared_ptr<fun::AttributeValue>, boost::shared_ptr<fun::Object> >, std::allocator<std::pair<boost::shared_ptr<fun::AttributeValue>, boost::shared_ptr<fun::Object> > > >::~vector
FUNC bc9b8 26 0 std::vector<std::pair<boost::shared_ptr<fun::AttributeValue>, boost::shared_ptr<fun::Object> >, std::allocator<std::pair<boost::shared_ptr<fun::AttributeValue>, boost::shared_ptr<fun::Object> > > >::size
FUNC bc9de 26 0 std::vector<boost::shared_ptr<fun::AttributeValue>, std::allocator<boost::shared_ptr<fun::AttributeValue> > >::size
FUNC bca04 163 0 std::vector<std::pair<std::basic_string<char, std::char_traits<char>, std::allocator<char> >, boost::shared_ptr<pong::Character> >, std::allocator<std::pair<std::basic_string<char, std::char_traits<char>, std::allocator<char> >, boost::shared_ptr<pong::Character> > > >::reserve
FUNC bcb68 20 0 std::vector<std::pair<boost::shared_ptr<fun::AttributeValue>, boost::shared_ptr<fun::Object> >, std::allocator<std::pair<boost::shared_ptr<fun::AttributeValue>, boost::shared_ptr<fun::Object> > > >::operator[]
FUNC bcb88 40 0 boost::shared_ptr<fun::AttributeValue>::operator*
FUNC bcbc8 e 0 std::move<std::pair<std::basic_string<char>, boost::shared_ptr<pong::Character> >&>
FUNC bcbd6 30 0 std::vector<std::pair<std::basic_string<char, std::char_traits<char>, std::allocator<char> >, boost::shared_ptr<pong::Character> >, std::allocator<std::pair<std::basic_string<char, std::char_traits<char>, std::allocator<char> >, boost::shared_ptr<pong::Character> > > >::push_back
FUNC bcc06 37 0 std::vector<std::pair<std::basic_string<char, std::char_traits<char>, std::allocator<char> >, boost::shared_ptr<pong::Character> >, std::allocator<std::pair<std::basic_string<char, std::char_traits<char>, std::allocator<char> >, boost::shared_ptr<pong::Character> > > >::size
FUNC bcc3e 1a 0 std::vector<boost::shared_ptr<fun::Object>, std::allocator<boost::shared_ptr<fun::Object> > >::vector
FUNC bcc58 43 0 std::vector<boost::shared_ptr<fun::Object>, std::allocator<boost::shared_ptr<fun::Object> > >::~vector
FUNC bcc9c 26 0 std::vector<boost::shared_ptr<fun::Object>, std::allocator<boost::shared_ptr<fun::Object> > >::size
FUNC bccc2 20 0 std::vector<boost::shared_ptr<fun::Object>, std::allocator<boost::shared_ptr<fun::Object> > >::operator[]
FUNC bcce2 e 0 std::move<boost::shared_ptr<pong::Character>&>
FUNC bccf0 30 0 std::vector<boost::shared_ptr<pong::Character>, std::allocator<boost::shared_ptr<pong::Character> > >::push_back
FUNC bcd20 29 0 boost::shared_ptr<pong::User>::shared_ptr
FUNC bcd4a 29 0 boost::weak_ptr<pong::User>::weak_ptr
FUNC bcd73 62 0 boost::bind<const boost::uuids::uuid&, pong::User, boost::arg<1> >
FUNC bcdd6 3c 0 boost::function<boost::uuids::uuid(const boost::shared_ptr<pong::User>&)>::function<boost::_bi::bind_t<const boost::uuids::uuid&, boost::_mfi::cmf0<const boost::uuids::uuid&, pong::User>, boost::_bi::list1<boost::arg<1> > > >
FUNC bce12 1a 0 boost::function1<boost::uuids::uuid, const boost::shared_ptr<pong::User>&>::~function1
FUNC bce2c 120 0 pong::CompareAttribute<pong::User, boost::uuids::uuid>
FUNC bcf4c 25 0 boost::function<boost::uuids::uuid(const boost::shared_ptr<pong::User>&)>::function
FUNC bcf71 135 0 boost::bind<bool, const boost::shared_ptr<pong::User>&, const boost::uuids::uuid&, const boost::function<boost::uuids::uuid(const boost::shared_ptr<pong::User>&)>&, pong::MatchCondition, boost::arg<1>, boost::uuids::uuid, boost::function<boost::uuids::uuid(const boost::shared_ptr<pong::User>&)>, pong::MatchCondition>
FUNC bd0a6 25 0 boost::_bi::value<boost::function<boost::uuids::uuid(const boost::shared_ptr<pong::User>&)> >::value
FUNC bd0cc 43 0 boost::_bi::storage3<boost::arg<1>, boost::_bi::value<boost::uuids::uuid>, boost::_bi::value<boost::function<boost::uuids::uuid(const boost::shared_ptr<pong::User>&)> > >::storage3
FUNC bd110 33 0 boost::_bi::storage4<boost::arg<1>, boost::_bi::value<boost::uuids::uuid>, boost::_bi::value<boost::function<boost::uuids::uuid(const boost::shared_ptr<pong::User>&)> >, boost::_bi::value<pong::MatchCondition> >::storage4
FUNC bd144 25 0 boost::_bi::list4<boost::arg<1>, boost::_bi::value<boost::uuids::uuid>, boost::_bi::value<boost::function<boost::uuids::uuid(const boost::shared_ptr<pong::User>&)> >, boost::_bi::value<pong::MatchCondition> >::list4
FUNC bd16a 3b 0 boost::_bi::bind_t<bool, bool (*)(const boost::shared_ptr<pong::User>&, const boost::uuids::uuid&, const boost::function<boost::uuids::uuid(const boost::shared_ptr<pong::User>&)>&, pong::MatchCondition), boost::_bi::list4<boost::arg<1>, boost::_bi::value<boost::uuids::uuid>, boost::_bi::value<boost::function<boost::uuids::uuid(const boost::shared_ptr<pong::User>&)> >, boost::_bi::value<pong::MatchCondition> > >::bind_t
FUNC bd1a6 91 0 boost::function<bool(const boost::shared_ptr<pong::User>&)>::function<boost::_bi::bind_t<bool, bool (*)(const boost::shared_ptr<pong::User>&, const boost::uuids::uuid&, const boost::function<boost::uuids::uuid(const boost::shared_ptr<pong::User>&)>&, pong::MatchCondition), boost::_bi::list4<boost::arg<1>, boost::_bi::value<boost::uuids::uuid>, boost::_bi::value<boost::function<boost::uuids::uuid(const boost::shared_ptr<pong::User>&)> >, boost::_bi::value<pong::MatchCondition> > > >
FUNC bd237 62 0 boost::bind<std::basic_string<char>, pong::User, boost::arg<1> >
FUNC bd29a 3c 0 boost::function<std::basic_string<char, std::char_traits<char>, std::allocator<char> >(const boost::shared_ptr<pong::User>&)>::function<boost::_bi::bind_t<std::basic_string<char>, boost::_mfi::cmf0<std::basic_string<char>, pong::User>, boost::_bi::list1<boost::arg<1> > > >
FUNC bd2d6 1a 0 boost::function1<std::basic_string<char, std::char_traits<char>, std::allocator<char> >, const boost::shared_ptr<pong::User>&>::~function1
FUNC bd2f0 153 0 pong::CompareAttribute<pong::User, std::basic_string<char> >
FUNC bd444 25 0 boost::function<std::basic_string<char, std::char_traits<char>, std::allocator<char> >(const boost::shared_ptr<pong::User>&)>::function
FUNC bd469 11b 0 boost::bind<bool, const boost::shared_ptr<pong::User>&, const std::basic_string<char>&, const boost::function<std::basic_string<char>(const boost::shared_ptr<pong::User>&)>&, pong::MatchCondition, boost::arg<1>, std::basic_string<char>, boost::function<std::basic_string<char>(const boost::shared_ptr<pong::User>&)>, pong::MatchCondition>
FUNC bd584 25 0 boost::_bi::value<boost::function<std::basic_string<char, std::char_traits<char>, std::allocator<char> >(const boost::shared_ptr<pong::User>&)> >::value
FUNC bd5aa 62 0 boost::_bi::storage3<boost::arg<1>, boost::_bi::value<std::basic_string<char, std::char_traits<char>, std::allocator<char> > >, boost::_bi::value<boost::function<std::basic_string<char, std::char_traits<char>, std::allocator<char> >(const boost::shared_ptr<pong::User>&)> > >::storage3
FUNC bd60c 33 0 boost::_bi::storage4<boost::arg<1>, boost::_bi::value<std::basic_string<char, std::char_traits<char>, std::allocator<char> > >, boost::_bi::value<boost::function<std::basic_string<char, std::char_traits<char>, std::allocator<char> >(const boost::shared_ptr<pong::User>&)> >, boost::_bi::value<pong::MatchCondition> >::storage4
FUNC bd640 25 0 boost::_bi::list4<boost::arg<1>, boost::_bi::value<std::basic_string<char, std::char_traits<char>, std::allocator<char> > >, boost::_bi::value<boost::function<std::basic_string<char, std::char_traits<char>, std::allocator<char> >(const boost::shared_ptr<pong::User>&)> >, boost::_bi::value<pong::MatchCondition> >::list4
FUNC bd666 3b 0 boost::_bi::bind_t<bool, bool (*)(const boost::shared_ptr<pong::User>&, const std::basic_string<char, std::char_traits<char>, std::allocator<char> >&, const boost::function<std::basic_string<char, std::char_traits<char>, std::allocator<char> >(const boost::shared_ptr<pong::User>&)>&, pong::MatchCondition), boost::_bi::list4<boost::arg<1>, boost::_bi::value<std::basic_string<char, std::char_traits<char>, std::allocator<char> > >, boost::_bi::value<boost::function<std::basic_string<char, std::char_traits<char>, std::allocator<char> >(const boost::shared_ptr<pong::User>&)> >, boost::_bi::value<pong::MatchCondition> > >::bind_t
FUNC bd6a2 6e 0 boost::function<bool(const boost::shared_ptr<pong::User>&)>::function<boost::_bi::bind_t<bool, bool (*)(const boost::shared_ptr<pong::User>&, const std::basic_string<char>&, const boost::function<std::basic_string<char>(const boost::shared_ptr<pong::User>&)>&, pong::MatchCondition), boost::_bi::list4<boost::arg<1>, boost::_bi::value<std::basic_string<char> >, boost::_bi::value<boost::function<std::basic_string<char>(const boost::shared_ptr<pong::User>&)> >, boost::_bi::value<pong::MatchCondition> > > >
FUNC bd710 62 0 boost::bind<boost::shared_ptr<pong::Character>, pong::User, boost::arg<1> >
FUNC bd772 3c 0 boost::function<boost::shared_ptr<pong::Character>(const boost::shared_ptr<pong::User>&)>::function<boost::_bi::bind_t<boost::shared_ptr<pong::Character>, boost::_mfi::cmf0<boost::shared_ptr<pong::Character>, pong::User>, boost::_bi::list1<boost::arg<1> > > >
FUNC bd7ae 1a 0 boost::function1<boost::shared_ptr<pong::Character>, const boost::shared_ptr<pong::User>&>::~function1
FUNC bd7c8 89 0 pong::CompareAttribute2<pong::User, boost::shared_ptr<pong::Character> >
FUNC bd852 25 0 boost::function<bool(const boost::shared_ptr<pong::Character>&)>::function
FUNC bd878 25 0 boost::function<boost::shared_ptr<pong::Character>(const boost::shared_ptr<pong::User>&)>::function
FUNC bd89d 10a 0 boost::bind<bool, const boost::shared_ptr<pong::User>&, const boost::function<bool(const boost::shared_ptr<pong::Character>&)>&, const boost::function<boost::shared_ptr<pong::Character>(const boost::shared_ptr<pong::User>&)>&, boost::arg<1>, boost::function<bool(const boost::shared_ptr<pong::Character>&)>, boost::function<boost::shared_ptr<pong::Character>(const boost::shared_ptr<pong::User>&)> >
FUNC bd9a8 25 0 boost::_bi::value<boost::function<bool(const boost::shared_ptr<pong::Character>&)> >::value
FUNC bd9ce 25 0 boost::_bi::storage2<boost::arg<1>, boost::_bi::value<boost::function<bool(const boost::shared_ptr<pong::Character>&)> > >::storage2
FUNC bd9f4 25 0 boost::_bi::value<boost::function<boost::shared_ptr<pong::Character>(const boost::shared_ptr<pong::User>&)> >::value
FUNC bda1a 62 0 boost::_bi::storage3<boost::arg<1>, boost::_bi::value<boost::function<bool(const boost::shared_ptr<pong::Character>&)> >, boost::_bi::value<boost::function<boost::shared_ptr<pong::Character>(const boost::shared_ptr<pong::User>&)> > >::storage3
FUNC bda7c 25 0 boost::_bi::list3<boost::arg<1>, boost::_bi::value<boost::function<bool(const boost::shared_ptr<pong::Character>&)> >, boost::_bi::value<boost::function<boost::shared_ptr<pong::Character>(const boost::shared_ptr<pong::User>&)> > >::list3
FUNC bdaa2 3b 0 boost::_bi::bind_t<bool, bool (*)(const boost::shared_ptr<pong::User>&, const boost::function<bool(const boost::shared_ptr<pong::Character>&)>&, const boost::function<boost::shared_ptr<pong::Character>(const boost::shared_ptr<pong::User>&)>&), boost::_bi::list3<boost::arg<1>, boost::_bi::value<boost::function<bool(const boost::shared_ptr<pong::Character>&)> >, boost::_bi::value<boost::function<boost::shared_ptr<pong::Character>(const boost::shared_ptr<pong::User>&)> > > >::bind_t
FUNC bdade 6e 0 boost::function<bool(const boost::shared_ptr<pong::User>&)>::function<boost::_bi::bind_t<bool, bool (*)(const boost::shared_ptr<pong::User>&, const boost::function<bool(const boost::shared_ptr<pong::Character>&)>&, const boost::function<boost::shared_ptr<pong::Character>(const boost::shared_ptr<pong::User>&)>&), boost::_bi::list3<boost::arg<1>, boost::_bi::value<boost::function<bool(const boost::shared_ptr<pong::Character>&)> >, boost::_bi::value<boost::function<boost::shared_ptr<pong::Character>(const boost::shared_ptr<pong::User>&)> > > > >
FUNC bdb4c 62 0 boost::bind<long int, pong::User, boost::arg<1> >
FUNC bdbae 3c 0 boost::function<long int(const boost::shared_ptr<pong::User>&)>::function<boost::_bi::bind_t<long int, boost::_mfi::cmf0<long int, pong::User>, boost::_bi::list1<boost::arg<1> > > >
FUNC bdbea 1a 0 boost::function1<long int, const boost::shared_ptr<pong::User>&>::~function1
FUNC bdc04 d0 0 pong::CompareAttribute<pong::User, long int>
FUNC bdcd4 25 0 boost::function<long int(const boost::shared_ptr<pong::User>&)>::function
FUNC bdcf9 fe 0 boost::bind<bool, const boost::shared_ptr<pong::User>&, long int const&, const boost::function<long int(const boost::shared_ptr<pong::User>&)>&, pong::MatchCondition, boost::arg<1>, long int, boost::function<long int(const boost::shared_ptr<pong::User>&)>, pong::MatchCondition>
FUNC bddf8 25 0 boost::_bi::value<boost::function<long int(const boost::shared_ptr<pong::User>&)> >::value
FUNC bde1e 3b 0 boost::_bi::storage3<boost::arg<1>, boost::_bi::value<long int>, boost::_bi::value<boost::function<long int(const boost::shared_ptr<pong::User>&)> > >::storage3
FUNC bde5a 33 0 boost::_bi::storage4<boost::arg<1>, boost::_bi::value<long int>, boost::_bi::value<boost::function<long int(const boost::shared_ptr<pong::User>&)> >, boost::_bi::value<pong::MatchCondition> >::storage4
FUNC bde8e 25 0 boost::_bi::list4<boost::arg<1>, boost::_bi::value<long int>, boost::_bi::value<boost::function<long int(const boost::shared_ptr<pong::User>&)> >, boost::_bi::value<pong::MatchCondition> >::list4
FUNC bdeb4 3b 0 boost::_bi::bind_t<bool, bool (*)(const boost::shared_ptr<pong::User>&, long int const&, const boost::function<long int(const boost::shared_ptr<pong::User>&)>&, pong::MatchCondition), boost::_bi::list4<boost::arg<1>, boost::_bi::value<long int>, boost::_bi::value<boost::function<long int(const boost::shared_ptr<pong::User>&)> >, boost::_bi::value<pong::MatchCondition> > >::bind_t
FUNC bdef0 6e 0 boost::function<bool(const boost::shared_ptr<pong::User>&)>::function<boost::_bi::bind_t<bool, bool (*)(const boost::shared_ptr<pong::User>&, long int const&, const boost::function<long int(const boost::shared_ptr<pong::User>&)>&, pong::MatchCondition), boost::_bi::list4<boost::arg<1>, boost::_bi::value<long int>, boost::_bi::value<boost::function<long int(const boost::shared_ptr<pong::User>&)> >, boost::_bi::value<pong::MatchCondition> > > >
FUNC bdf5e 29 0 boost::shared_ptr<pong::User::OpaqueData>::shared_ptr
FUNC bdf88 56 0 boost::shared_ptr<pong::User::OpaqueData>::shared_ptr
FUNC bdfde 6e 0 boost::shared_ptr<pong::User::OpaqueData>::shared_ptr<pong::User::OpaqueData>
FUNC be04c 40 0 boost::shared_ptr<pong::User::OpaqueData>::operator->
FUNC be08c 48 0 boost::shared_ptr<pong::Character::OpaqueData>::operator=
FUNC be0d4 17 0 boost::shared_ptr<pong::Character::OpaqueData>::operator!
FUNC be0ec 6e 0 boost::shared_ptr<pong::User>::shared_ptr<pong::User>
FUNC be15a 41 0 std::vector<std::pair<boost::uuids::uuid, boost::shared_ptr<pong::User> >, std::allocator<std::pair<boost::uuids::uuid, boost::shared_ptr<pong::User> > > >::empty
FUNC be19c 13f 0 std::vector<std::pair<boost::uuids::uuid, boost::shared_ptr<pong::User> >, std::allocator<std::pair<boost::uuids::uuid, boost::shared_ptr<pong::User> > > >::reserve
FUNC be2dc 77 0 boost::shared_ptr<pong::User>::reset<pong::User>
FUNC be353 e 0 std::move<std::pair<boost::uuids::uuid, boost::shared_ptr<pong::User> >&>
FUNC be362 30 0 std::vector<std::pair<boost::uuids::uuid, boost::shared_ptr<pong::User> >, std::allocator<std::pair<boost::uuids::uuid, boost::shared_ptr<pong::User> > > >::push_back
FUNC be392 26 0 std::vector<std::pair<boost::uuids::uuid, boost::shared_ptr<pong::User> >, std::allocator<std::pair<boost::uuids::uuid, boost::shared_ptr<pong::User> > > >::size
FUNC be3b8 41 0 std::vector<std::pair<std::basic_string<char, std::char_traits<char>, std::allocator<char> >, boost::shared_ptr<pong::User> >, std::allocator<std::pair<std::basic_string<char, std::char_traits<char>, std::allocator<char> >, boost::shared_ptr<pong::User> > > >::empty
FUNC be3fa 163 0 std::vector<std::pair<std::basic_string<char, std::char_traits<char>, std::allocator<char> >, boost::shared_ptr<pong::User> >, std::allocator<std::pair<std::basic_string<char, std::char_traits<char>, std::allocator<char> >, boost::shared_ptr<pong::User> > > >::reserve
FUNC be55d e 0 std::move<std::pair<std::basic_string<char>, boost::shared_ptr<pong::User> >&>
FUNC be56c 30 0 std::vector<std::pair<std::basic_string<char, std::char_traits<char>, std::allocator<char> >, boost::shared_ptr<pong::User> >, std::allocator<std::pair<std::basic_string<char, std::char_traits<char>, std::allocator<char> >, boost::shared_ptr<pong::User> > > >::push_back
FUNC be59c 37 0 std::vector<std::pair<std::basic_string<char, std::char_traits<char>, std::allocator<char> >, boost::shared_ptr<pong::User> >, std::allocator<std::pair<std::basic_string<char, std::char_traits<char>, std::allocator<char> >, boost::shared_ptr<pong::User> > > >::size
FUNC be5d3 e 0 std::move<boost::shared_ptr<pong::User>&>
FUNC be5e2 30 0 std::vector<boost::shared_ptr<pong::User>, std::allocator<boost::shared_ptr<pong::User> > >::push_back
FUNC be612 17 0 boost::shared_ptr<pong::Character::OpaqueData>::operator bool
FUNC be629 3ba 0 boost::uuids::operator<< <char, std::char_traits<char> >
FUNC be9e4 1a 0 std::vector<boost::shared_ptr<const fun::AttributeModel>, std::allocator<boost::shared_ptr<const fun::AttributeModel> > >::vector
FUNC be9fe 43 0 std::vector<boost::shared_ptr<const fun::AttributeModel>, std::allocator<boost::shared_ptr<const fun::AttributeModel> > >::~vector
FUNC bea42 6e 0 boost::shared_ptr<const fun::AttributeModel>::shared_ptr<fun::AttributeModel>
FUNC beab0 e 0 std::move<boost::shared_ptr<const fun::AttributeModel>&>
FUNC beabe 30 0 std::vector<boost::shared_ptr<const fun::AttributeModel>, std::allocator<boost::shared_ptr<const fun::AttributeModel> > >::push_back
FUNC beaee 6e 0 boost::shared_ptr<const fun::ObjectModel>::shared_ptr<fun::ObjectModel>
FUNC beb5c 17 0 boost::shared_ptr<const pong::Character>::operator bool
FUNC beb74 40 0 boost::shared_ptr<const pong::Character>::operator*
FUNC bebb4 40 0 boost::shared_ptr<pong::Character>::operator*
FUNC bebf4 17 0 boost::shared_ptr<const pong::User>::operator bool
FUNC bec0c 40 0 boost::shared_ptr<const pong::User>::operator*
FUNC bec4c 56 0 boost::exception_detail::refcount_ptr<boost::exception_detail::error_info_container>::release
FUNC beca2 e 0 std::forward<const std::piecewise_construct_t&>
FUNC becb0 e 0 std::forward<std::tuple<> >
FUNC becbe 37 0 boost::exception_detail::refcount_ptr<boost::exception_detail::error_info_container>::add_ref
FUNC becf6 1c 0 boost::exception_detail::clone_base::clone_base
FUNC bed12 c1 0 boost::exception_detail::clone_impl<boost::exception_detail::bad_alloc_>::clone_impl
FUNC bedd4 8a 0 boost::exception_detail::clone_impl<boost::exception_detail::bad_alloc_>::~clone_impl
FUNC bee74 26 0 boost::exception_detail::clone_impl<boost::exception_detail::bad_alloc_>::~clone_impl
FUNC beea9 25 0 boost::operator<< <boost::exception_detail::clone_impl<boost::exception_detail::bad_alloc_>, boost::throw_function_, char const*>
FUNC beece 25 0 boost::operator<< <boost::exception_detail::clone_impl<boost::exception_detail::bad_alloc_>, boost::throw_file_, char const*>
FUNC beef3 25 0 boost::operator<< <boost::exception_detail::clone_impl<boost::exception_detail::bad_alloc_>, boost::throw_line_, int>
FUNC bef18 90 0 boost::shared_ptr<const boost::exception_detail::clone_base>::shared_ptr<boost::exception_detail::clone_impl<boost::exception_detail::bad_alloc_> >
FUNC befa8 c1 0 boost::exception_detail::clone_impl<boost::exception_detail::bad_exception_>::clone_impl
FUNC bf06a 8a 0 boost::exception_detail::clone_impl<boost::exception_detail::bad_exception_>::~clone_impl
FUNC bf10a 26 0 boost::exception_detail::clone_impl<boost::exception_detail::bad_exception_>::~clone_impl
FUNC bf13f 25 0 boost::operator<< <boost::exception_detail::clone_impl<boost::exception_detail::bad_exception_>, boost::throw_function_, char const*>
FUNC bf164 25 0 boost::operator<< <boost::exception_detail::clone_impl<boost::exception_detail::bad_exception_>, boost::throw_file_, char const*>
FUNC bf189 25 0 boost::operator<< <boost::exception_detail::clone_impl<boost::exception_detail::bad_exception_>, boost::throw_line_, int>
FUNC bf1ae 90 0 boost::shared_ptr<const boost::exception_detail::clone_base>::shared_ptr<boost::exception_detail::clone_impl<boost::exception_detail::bad_exception_> >
FUNC bf23e 37 0 boost::bad_function_call::bad_function_call
FUNC bf276 87 0 boost::exception_detail::error_info_injector<boost::bad_function_call>::error_info_injector
FUNC bf2fe b8 0 boost::exception_detail::clone_impl<boost::exception_detail::error_info_injector<boost::bad_function_call> >::clone_impl
FUNC bf3b6 99 0 boost::throw_exception<boost::bad_function_call>
FUNC bf44f 1a 0 std::__niter_base<unsigned char const*>
FUNC bf469 31 0 std::__equal_aux<unsigned char const*, unsigned char const*>
FUNC bf49a 36 0 std::__lexicographical_compare_aux<unsigned char const*, unsigned char const*>
FUNC bf4d0 1a 0 boost::asio::detail::keyword_tss_ptr<boost::asio::detail::call_stack<boost::asio::detail::task_io_service, boost::asio::detail::task_io_service_thread_info>::context>::keyword_tss_ptr
FUNC bf4ea 1a 0 boost::asio::detail::keyword_tss_ptr<boost::asio::detail::call_stack<boost::asio::detail::task_io_service, boost::asio::detail::task_io_service_thread_info>::context>::~keyword_tss_ptr
FUNC bf504 1a 0 boost::asio::detail::keyword_tss_ptr<boost::asio::detail::call_stack<boost::asio::detail::strand_service::strand_impl>::context>::keyword_tss_ptr
FUNC bf51e 1a 0 boost::asio::detail::keyword_tss_ptr<boost::asio::detail::call_stack<boost::asio::detail::strand_service::strand_impl>::context>::~keyword_tss_ptr
FUNC bf538 a 0 boost::aligned_storage<16ul, 8ul>::~aligned_storage
FUNC bf542 1a 0 boost::detail::variant::destroyer::destroyer
FUNC bf55c 1a 0 boost::detail::variant::destroyer::~destroyer
FUNC bf576 5b 0 boost::variant<fun::AttributeValue::kNull, bool, long int, double, std::basic_string<char, std::char_traits<char>, std::allocator<char> >, boost::uuids::uuid, boost::detail::variant::void_, boost::detail::variant::void_, boost::detail::variant::void_, boost::detail::variant::void_, boost::detail::variant::void_, boost::detail::variant::void_, boost::detail::variant::void_, boost::detail::variant::void_, boost::detail::variant::void_, boost::detail::variant::void_, boost::detail::variant::void_, boost::detail::variant::void_, boost::detail::variant::void_, boost::detail::variant::void_>::destroy_content
FUNC bf5d2 1a 0 boost::aligned_storage<16ul, 8ul>::address
FUNC bf5ec 2e 0 boost::variant<fun::AttributeValue::kNull, bool, long int, double, std::basic_string<char, std::char_traits<char>, std::allocator<char> >, boost::uuids::uuid, boost::detail::variant::void_, boost::detail::variant::void_, boost::detail::variant::void_, boost::detail::variant::void_, boost::detail::variant::void_, boost::detail::variant::void_, boost::detail::variant::void_, boost::detail::variant::void_, boost::detail::variant::void_, boost::detail::variant::void_, boost::detail::variant::void_, boost::detail::variant::void_, boost::detail::variant::void_, boost::detail::variant::void_>::which
FUNC bf61a 22 0 std::vector<boost::uuids::uuid, std::allocator<boost::uuids::uuid> >::max_size
FUNC bf63c 26 0 std::vector<boost::uuids::uuid, std::allocator<boost::uuids::uuid> >::capacity
FUNC bf662 25 0 std::__make_move_if_noexcept_iterator<boost::uuids::uuid*, std::move_iterator<boost::uuids::uuid*> >
FUNC bf688 97 0 std::vector<boost::uuids::uuid, std::allocator<boost::uuids::uuid> >::_M_allocate_and_copy<std::move_iterator<boost::uuids::uuid*> >
FUNC bf720 e 0 std::_Vector_base<boost::uuids::uuid, std::allocator<boost::uuids::uuid> >::_M_get_Tp_allocator
FUNC bf72e 29 0 std::_Destroy<boost::uuids::uuid*, boost::uuids::uuid>
FUNC bf758 34 0 std::_Vector_base<boost::uuids::uuid, std::allocator<boost::uuids::uuid> >::_M_deallocate
FUNC bf78c e 0 std::forward<boost::uuids::uuid>
FUNC bf79a 81 0 std::vector<boost::uuids::uuid, std::allocator<boost::uuids::uuid> >::emplace_back<boost::uuids::uuid>
FUNC bf81c 2e 0 boost::_mfi::cmf0<const boost::uuids::uuid&, pong::Character>::cmf0
FUNC bf84a 1d 0 boost::_bi::list1<boost::arg<1> >::list1
FUNC bf868 32 0 boost::_bi::bind_t<const boost::uuids::uuid&, boost::_mfi::cmf0<const boost::uuids::uuid&, pong::Character>, boost::_bi::list1<boost::arg<1> > >::bind_t
FUNC bf89a a 0 std::unary_function<const boost::shared_ptr<pong::Character>&, boost::uuids::uuid>::unary_function
FUNC bf8a4 4f 0 boost::function1<boost::uuids::uuid, const boost::shared_ptr<pong::Character>&>::function1<boost::_bi::bind_t<const boost::uuids::uuid&, boost::_mfi::cmf0<const boost::uuids::uuid&, pong::Character>, boost::_bi::list1<boost::arg<1> > > >
FUNC bf8f4 5d 0 boost::function1<boost::uuids::uuid, const boost::shared_ptr<pong::Character>&>::clear
FUNC bf952 80 0 boost::function1<boost::uuids::uuid, const boost::shared_ptr<pong::Character>&>::operator()
FUNC bf9d2 3d 0 boost::function1<boost::uuids::uuid, const boost::shared_ptr<pong::Character>&>::function1
FUNC bfa10 24 0 boost::_bi::value<boost::uuids::uuid>::value
FUNC bfa34 25 0 boost::_bi::value<boost::function<boost::uuids::uuid(const boost::shared_ptr<pong::Character>&)> >::value
FUNC bfa5a 1a 0 boost::_bi::value<pong::MatchCondition>::value
FUNC bfa74 89 0 boost::_bi::list4<boost::arg<1>, boost::_bi::value<boost::uuids::uuid>, boost::_bi::value<boost::function<boost::uuids::uuid(const boost::shared_ptr<pong::Character>&)> >, boost::_bi::value<pong::MatchCondition> >::list4
FUNC bfafe 38 0 boost::_bi::bind_t<bool, bool (*)(const boost::shared_ptr<pong::Character>&, const boost::uuids::uuid&, const boost::function<boost::uuids::uuid(const boost::shared_ptr<pong::Character>&)>&, pong::MatchCondition), boost::_bi::list4<boost::arg<1>, boost::_bi::value<boost::uuids::uuid>, boost::_bi::value<boost::function<boost::uuids::uuid(const boost::shared_ptr<pong::Character>&)> >, boost::_bi::value<pong::MatchCondition> > >::bind_t
FUNC bfb36 a 0 std::unary_function<const boost::shared_ptr<pong::Character>&, bool>::unary_function
FUNC bfb40 a4 0 boost::function1<bool, const boost::shared_ptr<pong::Character>&>::function1<boost::_bi::bind_t<bool, bool (*)(const boost::shared_ptr<pong::Character>&, const boost::uuids::uuid&, const boost::function<boost::uuids::uuid(const boost::shared_ptr<pong::Character>&)>&, pong::MatchCondition), boost::_bi::list4<boost::arg<1>, boost::_bi::value<boost::uuids::uuid>, boost::_bi::value<boost::function<boost::uuids::uuid(const boost::shared_ptr<pong::Character>&)> >, boost::_bi::value<pong::MatchCondition> > > >
FUNC bfbe4 5d 0 boost::function1<bool, const boost::shared_ptr<pong::Character>&>::clear
FUNC bfc42 2e 0 boost::_mfi::cmf0<std::basic_string<char, std::char_traits<char>, std::allocator<char> >, pong::Character>::cmf0
FUNC bfc70 32 0 boost::_bi::bind_t<std::basic_string<char, std::char_traits<char>, std::allocator<char> >, boost::_mfi::cmf0<std::basic_string<char, std::char_traits<char>, std::allocator<char> >, pong::Character>, boost::_bi::list1<boost::arg<1> > >::bind_t
FUNC bfca2 a 0 std::unary_function<const boost::shared_ptr<pong::Character>&, std::basic_string<char, std::char_traits<char>, std::allocator<char> > >::unary_function
FUNC bfcac 4f 0 boost::function1<std::basic_string<char, std::char_traits<char>, std::allocator<char> >, const boost::shared_ptr<pong::Character>&>::function1<boost::_bi::bind_t<std::basic_string<char>, boost::_mfi::cmf0<std::basic_string<char>, pong::Character>, boost::_bi::list1<boost::arg<1> > > >
FUNC bfcfc 5d 0 boost::function1<std::basic_string<char, std::char_traits<char>, std::allocator<char> >, const boost::shared_ptr<pong::Character>&>::clear
FUNC bfd5a 89 0 boost::function1<std::basic_string<char, std::char_traits<char>, std::allocator<char> >, const boost::shared_ptr<pong::Character>&>::operator()
FUNC bfde3 2a 0 std::operator><char, std::char_traits<char>, std::allocator<char> >
FUNC bfe0e 3d 0 boost::function1<std::basic_string<char, std::char_traits<char>, std::allocator<char> >, const boost::shared_ptr<pong::Character>&>::function1
FUNC bfe4c 25 0 boost::_bi::value<std::basic_string<char, std::char_traits<char>, std::allocator<char> > >::value
FUNC bfe72 25 0 boost::_bi::value<boost::function<std::basic_string<char, std::char_traits<char>, std::allocator<char> >(const boost::shared_ptr<pong::Character>&)> >::value
FUNC bfe98 a4 0 boost::_bi::list4<boost::arg<1>, boost::_bi::value<std::basic_string<char, std::char_traits<char>, std::allocator<char> > >, boost::_bi::value<boost::function<std::basic_string<char, std::char_traits<char>, std::allocator<char> >(const boost::shared_ptr<pong::Character>&)> >, boost::_bi::value<pong::MatchCondition> >::list4
FUNC bff3c 38 0 boost::_bi::bind_t<bool, bool (*)(const boost::shared_ptr<pong::Character>&, const std::basic_string<char, std::char_traits<char>, std::allocator<char> >&, const boost::function<std::basic_string<char, std::char_traits<char>, std::allocator<char> >(const boost::shared_ptr<pong::Character>&)>&, pong::MatchCondition), boost::_bi::list4<boost::arg<1>, boost::_bi::value<std::basic_string<char, std::char_traits<char>, std::allocator<char> > >, boost::_bi::value<boost::function<std::basic_string<char, std::char_traits<char>, std::allocator<char> >(const boost::shared_ptr<pong::Character>&)> >, boost::_bi::value<pong::MatchCondition> > >::bind_t
FUNC bff74 81 0 boost::function1<bool, const boost::shared_ptr<pong::Character>&>::function1<boost::_bi::bind_t<bool, bool (*)(const boost::shared_ptr<pong::Character>&, const std::basic_string<char>&, const boost::function<std::basic_string<char>(const boost::shared_ptr<pong::Character>&)>&, pong::MatchCondition), boost::_bi::list4<boost::arg<1>, boost::_bi::value<std::basic_string<char> >, boost::_bi::value<boost::function<std::basic_string<char>(const boost::shared_ptr<pong::Character>&)> >, boost::_bi::value<pong::MatchCondition> > > >
FUNC bfff6 2e 0 boost::_mfi::cmf0<long int, pong::Character>::cmf0
FUNC c0024 32 0 boost::_bi::bind_t<long int, boost::_mfi::cmf0<long int, pong::Character>, boost::_bi::list1<boost::arg<1> > >::bind_t
FUNC c0056 a 0 std::unary_function<const boost::shared_ptr<pong::Character>&, long int>::unary_function
FUNC c0060 4f 0 boost::function1<long int, const boost::shared_ptr<pong::Character>&>::function1<boost::_bi::bind_t<long int, boost::_mfi::cmf0<long int, pong::Character>, boost::_bi::list1<boost::arg<1> > > >
FUNC c00b0 5d 0 boost::function1<long int, const boost::shared_ptr<pong::Character>&>::clear
FUNC c010e 80 0 boost::function1<long int, const boost::shared_ptr<pong::Character>&>::operator()
FUNC c018e 3d 0 boost::function1<long int, const boost::shared_ptr<pong::Character>&>::function1
FUNC c01cc 1c 0 boost::_bi::value<long int>::value
FUNC c01e8 25 0 boost::_bi::value<boost::function<long int(const boost::shared_ptr<pong::Character>&)> >::value
FUNC c020e 74 0 boost::_bi::list4<boost::arg<1>, boost::_bi::value<long int>, boost::_bi::value<boost::function<long int(const boost::shared_ptr<pong::Character>&)> >, boost::_bi::value<pong::MatchCondition> >::list4
FUNC c0282 38 0 boost::_bi::bind_t<bool, bool (*)(const boost::shared_ptr<pong::Character>&, long int const&, const boost::function<long int(const boost::shared_ptr<pong::Character>&)>&, pong::MatchCondition), boost::_bi::list4<boost::arg<1>, boost::_bi::value<long int>, boost::_bi::value<boost::function<long int(const boost::shared_ptr<pong::Character>&)> >, boost::_bi::value<pong::MatchCondition> > >::bind_t
FUNC c02ba 81 0 boost::function1<bool, const boost::shared_ptr<pong::Character>&>::function1<boost::_bi::bind_t<bool, bool (*)(const boost::shared_ptr<pong::Character>&, long int const&, const boost::function<long int(const boost::shared_ptr<pong::Character>&)>&, pong::MatchCondition), boost::_bi::list4<boost::arg<1>, boost::_bi::value<long int>, boost::_bi::value<boost::function<long int(const boost::shared_ptr<pong::Character>&)> >, boost::_bi::value<pong::MatchCondition> > > >
FUNC c033b 64 0 boost::detail::sp_pointer_construct<pong::Character::OpaqueData, pong::Character::OpaqueData>
FUNC c03a0 1a 0 std::_Rb_tree<std::basic_string<char, std::char_traits<char>, std::allocator<char> >, std::pair<const std::basic_string<char, std::char_traits<char>, std::allocator<char> >, boost::shared_ptr<fun::AttributeValue> >, std::_Select1st<std::pair<const std::basic_string<char, std::char_traits<char>, std::allocator<char> >, boost::shared_ptr<fun::AttributeValue> > >, std::less<std::basic_string<char, std::char_traits<char>, std::allocator<char> > >, std::allocator<std::pair<const std::basic_string<char, std::char_traits<char>, std::allocator<char> >, boost::shared_ptr<fun::AttributeValue> > > >::_Rb_tree
FUNC c03ba 1a 0 std::allocator<std::_Rb_tree_node<std::pair<const std::basic_string<char, std::char_traits<char>, std::allocator<char> >, boost::shared_ptr<fun::AttributeValue> > > >::~allocator
FUNC c03d4 64 0 std::_Rb_tree<std::basic_string<char, std::char_traits<char>, std::allocator<char> >, std::pair<const std::basic_string<char, std::char_traits<char>, std::allocator<char> >, boost::shared_ptr<fun::AttributeValue> >, std::_Select1st<std::pair<const std::basic_string<char, std::char_traits<char>, std::allocator<char> >, boost::shared_ptr<fun::AttributeValue> > >, std::less<std::basic_string<char, std::char_traits<char>, std::allocator<char> > >, std::allocator<std::pair<const std::basic_string<char, std::char_traits<char>, std::allocator<char> >, boost::shared_ptr<fun::AttributeValue> > > >::_M_erase
FUNC c0438 12 0 std::_Rb_tree<std::basic_string<char, std::char_traits<char>, std::allocator<char> >, std::pair<const std::basic_string<char, std::char_traits<char>, std::allocator<char> >, boost::shared_ptr<fun::AttributeValue> >, std::_Select1st<std::pair<const std::basic_string<char, std::char_traits<char>, std::allocator<char> >, boost::shared_ptr<fun::AttributeValue> > >, std::less<std::basic_string<char, std::char_traits<char>, std::allocator<char> > >, std::allocator<std::pair<const std::basic_string<char, std::char_traits<char>, std::allocator<char> >, boost::shared_ptr<fun::AttributeValue> > > >::_M_begin
FUNC c044a 25 0 std::map<std::basic_string<char, std::char_traits<char>, std::allocator<char> >, boost::shared_ptr<fun::AttributeValue>, std::less<std::basic_string<char, std::char_traits<char>, std::allocator<char> > >, std::allocator<std::pair<const std::basic_string<char, std::char_traits<char>, std::allocator<char> >, boost::shared_ptr<fun::AttributeValue> > > >::lower_bound
FUNC c0470 22 0 std::map<std::basic_string<char, std::char_traits<char>, std::allocator<char> >, boost::shared_ptr<fun::AttributeValue>, std::less<std::basic_string<char, std::char_traits<char>, std::allocator<char> > >, std::allocator<std::pair<const std::basic_string<char, std::char_traits<char>, std::allocator<char> >, boost::shared_ptr<fun::AttributeValue> > > >::key_comp
FUNC c0492 15 0 std::_Rb_tree_iterator<std::pair<const std::basic_string<char, std::char_traits<char>, std::allocator<char> >, boost::shared_ptr<fun::AttributeValue> > >::operator*
FUNC c04a8 29 0 std::less<std::basic_string<char, std::char_traits<char>, std::allocator<char> > >::operator()
FUNC c04d2 1a 0 std::map<std::basic_string<char, std::char_traits<char>, std::allocator<char> >, boost::shared_ptr<fun::AttributeValue>, std::less<std::basic_string<char, std::char_traits<char>, std::allocator<char> > >, std::allocator<std::pair<const std::basic_string<char, std::char_traits<char>, std::allocator<char> >, boost::shared_ptr<fun::AttributeValue> > > >::end
FUNC c04ec 22 0 std::_Rb_tree_iterator<std::pair<const std::basic_string<char, std::char_traits<char>, std::allocator<char> >, boost::shared_ptr<fun::AttributeValue> > >::operator==
FUNC c050e e 0 std::forward<std::basic_string<char> >
FUNC c051c 25 0 std::_Head_base<0ul, std::basic_string<char, std::char_traits<char>, std::allocator<char> >&&, false>::_Head_base<std::basic_string<char> >
FUNC c0542 3c 0 std::_Tuple_impl<0ul, std::basic_string<char, std::char_traits<char>, std::allocator<char> >&&>::_Tuple_impl<std::basic_string<char>, void>
FUNC c057e 30 0 std::tuple<std::basic_string<char, std::char_traits<char>, std::allocator<char> >&&>::tuple<std::basic_string<char, std::char_traits<char>, std::allocator<char> >, void>
FUNC c05ae e 0 std::_Tuple_impl<0ul, std::basic_string<char, std::char_traits<char>, std::allocator<char> >&&>::_M_tail
FUNC c05bc e 0 std::move<std::_Tuple_impl<1ul>&>
FUNC c05ca 11 0 std::_Head_base<0ul, std::basic_string<char, std::char_traits<char>, std::allocator<char> >&&, false>::_M_head
FUNC c05db 1a 0 std::_Tuple_impl<0ul, std::basic_string<char, std::char_traits<char>, std::allocator<char> >&&>::_M_head
FUNC c05f5 e 0 std::forward<std::basic_string<char>&&>
FUNC c0604 4c 0 std::_Tuple_impl<0ul, std::basic_string<char, std::char_traits<char>, std::allocator<char> >&&>::_Tuple_impl
FUNC c0650 25 0 std::tuple<std::basic_string<char, std::char_traits<char>, std::allocator<char> >&&>::tuple
FUNC c0675 34 0 std::forward_as_tuple<std::basic_string<char, std::char_traits<char>, std::allocator<char> > >
FUNC c06aa 1c 0 std::_Rb_tree_const_iterator<std::pair<const std::basic_string<char, std::char_traits<char>, std::allocator<char> >, boost::shared_ptr<fun::AttributeValue> > >::_Rb_tree_const_iterator
FUNC c06c6 e 0 std::forward<std::tuple<std::basic_string<char, std::char_traits<char>, std::allocator<char> >&&> >
FUNC c06d4 117 0 std::_Rb_tree<std::basic_string<char, std::char_traits<char>, std::allocator<char> >, std::pair<const std::basic_string<char, std::char_traits<char>, std::allocator<char> >, boost::shared_ptr<fun::AttributeValue> >, std::_Select1st<std::pair<const std::basic_string<char, std::char_traits<char>, std::allocator<char> >, boost::shared_ptr<fun::AttributeValue> > >, std::less<std::basic_string<char, std::char_traits<char>, std::allocator<char> > >, std::allocator<std::pair<const std::basic_string<char, std::char_traits<char>, std::allocator<char> >, boost::shared_ptr<fun::AttributeValue> > > >::_M_emplace_hint_unique<const std::piecewise_construct_t&, std::tuple<std::basic_string<char, std::char_traits<char>, std::allocator<char> >&&>, std::tuple<> >
FUNC c07ec 40 0 boost::shared_ptr<fun::AttributeValue>::swap
FUNC c082c 64 0 boost::detail::sp_pointer_construct<pong::Character, pong::Character>
FUNC c0890 31 0 std::vector<std::pair<boost::uuids::uuid, boost::shared_ptr<pong::Character> >, std::allocator<std::pair<boost::uuids::uuid, boost::shared_ptr<pong::Character> > > >::end
FUNC c08c2 30 0 std::vector<std::pair<boost::uuids::uuid, boost::shared_ptr<pong::Character> >, std::allocator<std::pair<boost::uuids::uuid, boost::shared_ptr<pong::Character> > > >::begin
FUNC c08f2 3c 0 __gnu_cxx::operator==<const std::pair<boost::uuids::uuid, boost::shared_ptr<pong::Character> >*, std::vector<std::pair<boost::uuids::uuid, boost::shared_ptr<pong::Character> > > >
FUNC c092e 1a 0 std::_Vector_base<std::pair<boost::uuids::uuid, boost::shared_ptr<fun::Object> >, std::allocator<std::pair<boost::uuids::uuid, boost::shared_ptr<fun::Object> > > >::_Vector_impl::~_Vector_impl
FUNC c0948 1a 0 std::_Vector_base<std::pair<boost::uuids::uuid, boost::shared_ptr<fun::Object> >, std::allocator<std::pair<boost::uuids::uuid, boost::shared_ptr<fun::Object> > > >::_Vector_base
FUNC c0962 4f 0 std::_Vector_base<std::pair<boost::uuids::uuid, boost::shared_ptr<fun::Object> >, std::allocator<std::pair<boost::uuids::uuid, boost::shared_ptr<fun::Object> > > >::~_Vector_base
FUNC c09b2 e 0 std::_Vector_base<std::pair<boost::uuids::uuid, boost::shared_ptr<fun::Object> >, std::allocator<std::pair<boost::uuids::uuid, boost::shared_ptr<fun::Object> > > >::_M_get_Tp_allocator
FUNC c09c0 29 0 std::_Destroy<std::pair<boost::uuids::uuid, boost::shared_ptr<fun::Object> >*, std::pair<boost::uuids::uuid, boost::shared_ptr<fun::Object> > >
FUNC c09ea 22 0 std::vector<std::pair<boost::uuids::uuid, boost::shared_ptr<fun::Object> >, std::allocator<std::pair<boost::uuids::uuid, boost::shared_ptr<fun::Object> > > >::max_size
FUNC c0a0c 26 0 std::vector<std::pair<boost::uuids::uuid, boost::shared_ptr<fun::Object> >, std::allocator<std::pair<boost::uuids::uuid, boost::shared_ptr<fun::Object> > > >::capacity
FUNC c0a32 25 0 std::__make_move_if_noexcept_iterator<std::pair<boost::uuids::uuid, boost::shared_ptr<fun::Object> >*, std::move_iterator<std::pair<boost::uuids::uuid, boost::shared_ptr<fun::Object> >*> >
FUNC c0a58 97 0 std::vector<std::pair<boost::uuids::uuid, boost::shared_ptr<fun::Object> >, std::allocator<std::pair<boost::uuids::uuid, boost::shared_ptr<fun::Object> > > >::_M_allocate_and_copy<std::move_iterator<std::pair<boost::uuids::uuid, boost::shared_ptr<fun::Object> >*> >
FUNC c0af0 34 0 std::_Vector_base<std::pair<boost::uuids::uuid, boost::shared_ptr<fun::Object> >, std::allocator<std::pair<boost::uuids::uuid, boost::shared_ptr<fun::Object> > > >::_M_deallocate
FUNC c0b24 22 0 std::vector<std::pair<boost::uuids::uuid, boost::shared_ptr<pong::Character> >, std::allocator<std::pair<boost::uuids::uuid, boost::shared_ptr<pong::Character> > > >::max_size
FUNC c0b46 26 0 std::vector<std::pair<boost::uuids::uuid, boost::shared_ptr<pong::Character> >, std::allocator<std::pair<boost::uuids::uuid, boost::shared_ptr<pong::Character> > > >::capacity
FUNC c0b6c 25 0 std::__make_move_if_noexcept_iterator<std::pair<boost::uuids::uuid, boost::shared_ptr<pong::Character> >*, std::move_iterator<std::pair<boost::uuids::uuid, boost::shared_ptr<pong::Character> >*> >
FUNC c0b92 97 0 std::vector<std::pair<boost::uuids::uuid, boost::shared_ptr<pong::Character> >, std::allocator<std::pair<boost::uuids::uuid, boost::shared_ptr<pong::Character> > > >::_M_allocate_and_copy<std::move_iterator<std::pair<boost::uuids::uuid, boost::shared_ptr<pong::Character> >*> >
FUNC c0c2a e 0 std::_Vector_base<std::pair<boost::uuids::uuid, boost::shared_ptr<pong::Character> >, std::allocator<std::pair<boost::uuids::uuid, boost::shared_ptr<pong::Character> > > >::_M_get_Tp_allocator
FUNC c0c38 29 0 std::_Destroy<std::pair<boost::uuids::uuid, boost::shared_ptr<pong::Character> >*, std::pair<boost::uuids::uuid, boost::shared_ptr<pong::Character> > >
FUNC c0c62 34 0 std::_Vector_base<std::pair<boost::uuids::uuid, boost::shared_ptr<pong::Character> >, std::allocator<std::pair<boost::uuids::uuid, boost::shared_ptr<pong::Character> > > >::_M_deallocate
FUNC c0c96 40 0 boost::shared_ptr<pong::Character>::swap
FUNC c0cd6 e 0 std::forward<std::pair<boost::uuids::uuid, boost::shared_ptr<pong::Character> > >
FUNC c0ce4 81 0 std::vector<std::pair<boost::uuids::uuid, boost::shared_ptr<pong::Character> >, std::allocator<std::pair<boost::uuids::uuid, boost::shared_ptr<pong::Character> > > >::emplace_back<std::pair<boost::uuids::uuid, boost::shared_ptr<pong::Character> > >
FUNC c0d65 64 0 boost::detail::sp_pointer_construct<fun::AttributeValue, fun::AttributeValue>
FUNC c0dca 31 0 std::vector<std::pair<std::basic_string<char, std::char_traits<char>, std::allocator<char> >, boost::shared_ptr<pong::Character> >, std::allocator<std::pair<std::basic_string<char, std::char_traits<char>, std::allocator<char> >, boost::shared_ptr<pong::Character> > > >::end
FUNC c0dfc 30 0 std::vector<std::pair<std::basic_string<char, std::char_traits<char>, std::allocator<char> >, boost::shared_ptr<pong::Character> >, std::allocator<std::pair<std::basic_string<char, std::char_traits<char>, std::allocator<char> >, boost::shared_ptr<pong::Character> > > >::begin
FUNC c0e2c 3c 0 __gnu_cxx::operator==<const std::pair<std::basic_string<char>, boost::shared_ptr<pong::Character> >*, std::vector<std::pair<std::basic_string<char>, boost::shared_ptr<pong::Character> > > >
FUNC c0e68 1a 0 std::_Vector_base<boost::shared_ptr<fun::AttributeValue>, std::allocator<boost::shared_ptr<fun::AttributeValue> > >::_Vector_impl::~_Vector_impl
FUNC c0e82 1a 0 std::_Vector_base<boost::shared_ptr<fun::AttributeValue>, std::allocator<boost::shared_ptr<fun::AttributeValue> > >::_Vector_base
FUNC c0e9c 4f 0 std::_Vector_base<boost::shared_ptr<fun::AttributeValue>, std::allocator<boost::shared_ptr<fun::AttributeValue> > >::~_Vector_base
FUNC c0eec e 0 std::_Vector_base<boost::shared_ptr<fun::AttributeValue>, std::allocator<boost::shared_ptr<fun::AttributeValue> > >::_M_get_Tp_allocator
FUNC c0efa 29 0 std::_Destroy<boost::shared_ptr<fun::AttributeValue>*, boost::shared_ptr<fun::AttributeValue> >
FUNC c0f24 22 0 std::vector<boost::shared_ptr<fun::AttributeValue>, std::allocator<boost::shared_ptr<fun::AttributeValue> > >::max_size
FUNC c0f46 26 0 std::vector<boost::shared_ptr<fun::AttributeValue>, std::allocator<boost::shared_ptr<fun::AttributeValue> > >::capacity
FUNC c0f6c 25 0 std::__make_move_if_noexcept_iterator<boost::shared_ptr<fun::AttributeValue>*, std::move_iterator<boost::shared_ptr<fun::AttributeValue>*> >
FUNC c0f92 97 0 std::vector<boost::shared_ptr<fun::AttributeValue>, std::allocator<boost::shared_ptr<fun::AttributeValue> > >::_M_allocate_and_copy<std::move_iterator<boost::shared_ptr<fun::AttributeValue>*> >
FUNC c102a 34 0 std::_Vector_base<boost::shared_ptr<fun::AttributeValue>, std::allocator<boost::shared_ptr<fun::AttributeValue> > >::_M_deallocate
FUNC c105e e 0 std::forward<boost::shared_ptr<fun::AttributeValue> >
FUNC c106c 81 0 std::vector<boost::shared_ptr<fun::AttributeValue>, std::allocator<boost::shared_ptr<fun::AttributeValue> > >::emplace_back<boost::shared_ptr<fun::AttributeValue> >
FUNC c10ee 1a 0 std::_Vector_base<std::pair<boost::shared_ptr<fun::AttributeValue>, boost::shared_ptr<fun::Object> >, std::allocator<std::pair<boost::shared_ptr<fun::AttributeValue>, boost::shared_ptr<fun::Object> > > >::_Vector_impl::~_Vector_impl
FUNC c1108 1a 0 std::_Vector_base<std::pair<boost::shared_ptr<fun::AttributeValue>, boost::shared_ptr<fun::Object> >, std::allocator<std::pair<boost::shared_ptr<fun::AttributeValue>, boost::shared_ptr<fun::Object> > > >::_Vector_base
FUNC c1122 4f 0 std::_Vector_base<std::pair<boost::shared_ptr<fun::AttributeValue>, boost::shared_ptr<fun::Object> >, std::allocator<std::pair<boost::shared_ptr<fun::AttributeValue>, boost::shared_ptr<fun::Object> > > >::~_Vector_base
FUNC c1172 e 0 std::_Vector_base<std::pair<boost::shared_ptr<fun::AttributeValue>, boost::shared_ptr<fun::Object> >, std::allocator<std::pair<boost::shared_ptr<fun::AttributeValue>, boost::shared_ptr<fun::Object> > > >::_M_get_Tp_allocator
FUNC c1180 29 0 std::_Destroy<std::pair<boost::shared_ptr<fun::AttributeValue>, boost::shared_ptr<fun::Object> >*, std::pair<boost::shared_ptr<fun::AttributeValue>, boost::shared_ptr<fun::Object> > >
FUNC c11aa 22 0 std::vector<std::pair<std::basic_string<char, std::char_traits<char>, std::allocator<char> >, boost::shared_ptr<pong::Character> >, std::allocator<std::pair<std::basic_string<char, std::char_traits<char>, std::allocator<char> >, boost::shared_ptr<pong::Character> > > >::max_size
FUNC c11cc 37 0 std::vector<std::pair<std::basic_string<char, std::char_traits<char>, std::allocator<char> >, boost::shared_ptr<pong::Character> >, std::allocator<std::pair<std::basic_string<char, std::char_traits<char>, std::allocator<char> >, boost::shared_ptr<pong::Character> > > >::capacity
FUNC c1203 25 0 std::__make_move_if_noexcept_iterator<std::pair<std::basic_string<char>, boost::shared_ptr<pong::Character> >*, std::move_iterator<std::pair<std::basic_string<char>, boost::shared_ptr<pong::Character> >*> >
FUNC c1228 97 0 std::vector<std::pair<std::basic_string<char, std::char_traits<char>, std::allocator<char> >, boost::shared_ptr<pong::Character> >, std::allocator<std::pair<std::basic_string<char, std::char_traits<char>, std::allocator<char> >, boost::shared_ptr<pong::Character> > > >::_M_allocate_and_copy<std::move_iterator<std::pair<std::basic_string<char>, boost::shared_ptr<pong::Character> >*> >
FUNC c12c0 e 0 std::_Vector_base<std::pair<std::basic_string<char, std::char_traits<char>, std::allocator<char> >, boost::shared_ptr<pong::Character> >, std::allocator<std::pair<std::basic_string<char, std::char_traits<char>, std::allocator<char> >, boost::shared_ptr<pong::Character> > > >::_M_get_Tp_allocator
FUNC c12ce 29 0 std::_Destroy<std::pair<std::basic_string<char>, boost::shared_ptr<pong::Character> >*, std::pair<std::basic_string<char>, boost::shared_ptr<pong::Character> > >
FUNC c12f8 34 0 std::_Vector_base<std::pair<std::basic_string<char, std::char_traits<char>, std::allocator<char> >, boost::shared_ptr<pong::Character> >, std::allocator<std::pair<std::basic_string<char, std::char_traits<char>, std::allocator<char> >, boost::shared_ptr<pong::Character> > > >::_M_deallocate
FUNC c132c e 0 std::forward<std::pair<std::basic_string<char>, boost::shared_ptr<pong::Character> > >
FUNC c133a 81 0 std::vector<std::pair<std::basic_string<char, std::char_traits<char>, std::allocator<char> >, boost::shared_ptr<pong::Character> >, std::allocator<std::pair<std::basic_string<char, std::char_traits<char>, std::allocator<char> >, boost::shared_ptr<pong::Character> > > >::emplace_back<std::pair<std::basic_string<char, std::char_traits<char>, std::allocator<char> >, boost::shared_ptr<pong::Character> > >
FUNC c13bc 1a 0 std::_Vector_base<boost::shared_ptr<fun::Object>, std::allocator<boost::shared_ptr<fun::Object> > >::_Vector_impl::~_Vector_impl
FUNC c13d6 1a 0 std::_Vector_base<boost::shared_ptr<fun::Object>, std::allocator<boost::shared_ptr<fun::Object> > >::_Vector_base
FUNC c13f0 4f 0 std::_Vector_base<boost::shared_ptr<fun::Object>, std::allocator<boost::shared_ptr<fun::Object> > >::~_Vector_base
FUNC c1440 e 0 std::_Vector_base<boost::shared_ptr<fun::Object>, std::allocator<boost::shared_ptr<fun::Object> > >::_M_get_Tp_allocator
FUNC c144e 29 0 std::_Destroy<boost::shared_ptr<fun::Object>*, boost::shared_ptr<fun::Object> >
FUNC c1477 e 0 std::forward<boost::shared_ptr<pong::Character> >
FUNC c1486 81 0 std::vector<boost::shared_ptr<pong::Character>, std::allocator<boost::shared_ptr<pong::Character> > >::emplace_back<boost::shared_ptr<pong::Character> >
FUNC c1508 2e 0 boost::_mfi::cmf0<const boost::uuids::uuid&, pong::User>::cmf0
FUNC c1536 32 0 boost::_bi::bind_t<const boost::uuids::uuid&, boost::_mfi::cmf0<const boost::uuids::uuid&, pong::User>, boost::_bi::list1<boost::arg<1> > >::bind_t
FUNC c1568 a 0 std::unary_function<const boost::shared_ptr<pong::User>&, boost::uuids::uuid>::unary_function
FUNC c1572 4f 0 boost::function1<boost::uuids::uuid, const boost::shared_ptr<pong::User>&>::function1<boost::_bi::bind_t<const boost::uuids::uuid&, boost::_mfi::cmf0<const boost::uuids::uuid&, pong::User>, boost::_bi::list1<boost::arg<1> > > >
FUNC c15c2 5d 0 boost::function1<boost::uuids::uuid, const boost::shared_ptr<pong::User>&>::clear
FUNC c1620 80 0 boost::function1<boost::uuids::uuid, const boost::shared_ptr<pong::User>&>::operator()
FUNC c16a0 3d 0 boost::function1<boost::uuids::uuid, const boost::shared_ptr<pong::User>&>::function1
FUNC c16de 25 0 boost::_bi::value<boost::function<boost::uuids::uuid(const boost::shared_ptr<pong::User>&)> >::value
FUNC c1704 89 0 boost::_bi::list4<boost::arg<1>, boost::_bi::value<boost::uuids::uuid>, boost::_bi::value<boost::function<boost::uuids::uuid(const boost::shared_ptr<pong::User>&)> >, boost::_bi::value<pong::MatchCondition> >::list4
FUNC c178e 38 0 boost::_bi::bind_t<bool, bool (*)(const boost::shared_ptr<pong::User>&, const boost::uuids::uuid&, const boost::function<boost::uuids::uuid(const boost::shared_ptr<pong::User>&)>&, pong::MatchCondition), boost::_bi::list4<boost::arg<1>, boost::_bi::value<boost::uuids::uuid>, boost::_bi::value<boost::function<boost::uuids::uuid(const boost::shared_ptr<pong::User>&)> >, boost::_bi::value<pong::MatchCondition> > >::bind_t
FUNC c17c6 a 0 std::unary_function<const boost::shared_ptr<pong::User>&, bool>::unary_function
FUNC c17d0 a4 0 boost::function1<bool, const boost::shared_ptr<pong::User>&>::function1<boost::_bi::bind_t<bool, bool (*)(const boost::shared_ptr<pong::User>&, const boost::uuids::uuid&, const boost::function<boost::uuids::uuid(const boost::shared_ptr<pong::User>&)>&, pong::MatchCondition), boost::_bi::list4<boost::arg<1>, boost::_bi::value<boost::uuids::uuid>, boost::_bi::value<boost::function<boost::uuids::uuid(const boost::shared_ptr<pong::User>&)> >, boost::_bi::value<pong::MatchCondition> > > >
FUNC c1874 2e 0 boost::_mfi::cmf0<std::basic_string<char, std::char_traits<char>, std::allocator<char> >, pong::User>::cmf0
FUNC c18a2 32 0 boost::_bi::bind_t<std::basic_string<char, std::char_traits<char>, std::allocator<char> >, boost::_mfi::cmf0<std::basic_string<char, std::char_traits<char>, std::allocator<char> >, pong::User>, boost::_bi::list1<boost::arg<1> > >::bind_t
FUNC c18d4 a 0 std::unary_function<const boost::shared_ptr<pong::User>&, std::basic_string<char, std::char_traits<char>, std::allocator<char> > >::unary_function
FUNC c18de 4f 0 boost::function1<std::basic_string<char, std::char_traits<char>, std::allocator<char> >, const boost::shared_ptr<pong::User>&>::function1<boost::_bi::bind_t<std::basic_string<char>, boost::_mfi::cmf0<std::basic_string<char>, pong::User>, boost::_bi::list1<boost::arg<1> > > >
FUNC c192e 5d 0 boost::function1<std::basic_string<char, std::char_traits<char>, std::allocator<char> >, const boost::shared_ptr<pong::User>&>::clear
FUNC c198c 89 0 boost::function1<std::basic_string<char, std::char_traits<char>, std::allocator<char> >, const boost::shared_ptr<pong::User>&>::operator()
FUNC c1a16 3d 0 boost::function1<std::basic_string<char, std::char_traits<char>, std::allocator<char> >, const boost::shared_ptr<pong::User>&>::function1
FUNC c1a54 25 0 boost::_bi::value<boost::function<std::basic_string<char, std::char_traits<char>, std::allocator<char> >(const boost::shared_ptr<pong::User>&)> >::value
FUNC c1a7a a4 0 boost::_bi::list4<boost::arg<1>, boost::_bi::value<std::basic_string<char, std::char_traits<char>, std::allocator<char> > >, boost::_bi::value<boost::function<std::basic_string<char, std::char_traits<char>, std::allocator<char> >(const boost::shared_ptr<pong::User>&)> >, boost::_bi::value<pong::MatchCondition> >::list4
FUNC c1b1e 38 0 boost::_bi::bind_t<bool, bool (*)(const boost::shared_ptr<pong::User>&, const std::basic_string<char, std::char_traits<char>, std::allocator<char> >&, const boost::function<std::basic_string<char, std::char_traits<char>, std::allocator<char> >(const boost::shared_ptr<pong::User>&)>&, pong::MatchCondition), boost::_bi::list4<boost::arg<1>, boost::_bi::value<std::basic_string<char, std::char_traits<char>, std::allocator<char> > >, boost::_bi::value<boost::function<std::basic_string<char, std::char_traits<char>, std::allocator<char> >(const boost::shared_ptr<pong::User>&)> >, boost::_bi::value<pong::MatchCondition> > >::bind_t
FUNC c1b56 81 0 boost::function1<bool, const boost::shared_ptr<pong::User>&>::function1<boost::_bi::bind_t<bool, bool (*)(const boost::shared_ptr<pong::User>&, const std::basic_string<char>&, const boost::function<std::basic_string<char>(const boost::shared_ptr<pong::User>&)>&, pong::MatchCondition), boost::_bi::list4<boost::arg<1>, boost::_bi::value<std::basic_string<char> >, boost::_bi::value<boost::function<std::basic_string<char>(const boost::shared_ptr<pong::User>&)> >, boost::_bi::value<pong::MatchCondition> > > >
FUNC c1bd8 2e 0 boost::_mfi::cmf0<boost::shared_ptr<pong::Character>, pong::User>::cmf0
FUNC c1c06 32 0 boost::_bi::bind_t<boost::shared_ptr<pong::Character>, boost::_mfi::cmf0<boost::shared_ptr<pong::Character>, pong::User>, boost::_bi::list1<boost::arg<1> > >::bind_t
FUNC c1c38 a 0 std::unary_function<const boost::shared_ptr<pong::User>&, boost::shared_ptr<pong::Character> >::unary_function
FUNC c1c42 4f 0 boost::function1<boost::shared_ptr<pong::Character>, const boost::shared_ptr<pong::User>&>::function1<boost::_bi::bind_t<boost::shared_ptr<pong::Character>, boost::_mfi::cmf0<boost::shared_ptr<pong::Character>, pong::User>, boost::_bi::list1<boost::arg<1> > > >
FUNC c1c92 5d 0 boost::function1<boost::shared_ptr<pong::Character>, const boost::shared_ptr<pong::User>&>::clear
FUNC c1cf0 89 0 boost::function1<boost::shared_ptr<pong::Character>, const boost::shared_ptr<pong::User>&>::operator()
FUNC c1d7a 80 0 boost::function1<bool, const boost::shared_ptr<pong::Character>&>::operator()
FUNC c1dfa 3d 0 boost::function1<bool, const boost::shared_ptr<pong::Character>&>::function1
FUNC c1e38 3d 0 boost::function1<boost::shared_ptr<pong::Character>, const boost::shared_ptr<pong::User>&>::function1
FUNC c1e76 25 0 boost::_bi::value<boost::function<bool(const boost::shared_ptr<pong::Character>&)> >::value
FUNC c1e9c 25 0 boost::_bi::value<boost::function<boost::shared_ptr<pong::Character>(const boost::shared_ptr<pong::User>&)> >::value
FUNC c1ec2 a1 0 boost::_bi::list3<boost::arg<1>, boost::_bi::value<boost::function<bool(const boost::shared_ptr<pong::Character>&)> >, boost::_bi::value<boost::function<boost::shared_ptr<pong::Character>(const boost::shared_ptr<pong::User>&)> > >::list3
FUNC c1f64 38 0 boost::_bi::bind_t<bool, bool (*)(const boost::shared_ptr<pong::User>&, const boost::function<bool(const boost::shared_ptr<pong::Character>&)>&, const boost::function<boost::shared_ptr<pong::Character>(const boost::shared_ptr<pong::User>&)>&), boost::_bi::list3<boost::arg<1>, boost::_bi::value<boost::function<bool(const boost::shared_ptr<pong::Character>&)> >, boost::_bi::value<boost::function<boost::shared_ptr<pong::Character>(const boost::shared_ptr<pong::User>&)> > > >::bind_t
FUNC c1f9c 81 0 boost::function1<bool, const boost::shared_ptr<pong::User>&>::function1<boost::_bi::bind_t<bool, bool (*)(const boost::shared_ptr<pong::User>&, const boost::function<bool(const boost::shared_ptr<pong::Character>&)>&, const boost::function<boost::shared_ptr<pong::Character>(const boost::shared_ptr<pong::User>&)>&), boost::_bi::list3<boost::arg<1>, boost::_bi::value<boost::function<bool(const boost::shared_ptr<pong::Character>&)> >, boost::_bi::value<boost::function<boost::shared_ptr<pong::Character>(const boost::shared_ptr<pong::User>&)> > > > >
FUNC c201e 2e 0 boost::_mfi::cmf0<long int, pong::User>::cmf0
FUNC c204c 32 0 boost::_bi::bind_t<long int, boost::_mfi::cmf0<long int, pong::User>, boost::_bi::list1<boost::arg<1> > >::bind_t
FUNC c207e a 0 std::unary_function<const boost::shared_ptr<pong::User>&, long int>::unary_function
FUNC c2088 4f 0 boost::function1<long int, const boost::shared_ptr<pong::User>&>::function1<boost::_bi::bind_t<long int, boost::_mfi::cmf0<long int, pong::User>, boost::_bi::list1<boost::arg<1> > > >
FUNC c20d8 5d 0 boost::function1<long int, const boost::shared_ptr<pong::User>&>::clear
FUNC c2136 80 0 boost::function1<long int, const boost::shared_ptr<pong::User>&>::operator()
FUNC c21b6 3d 0 boost::function1<long int, const boost::shared_ptr<pong::User>&>::function1
FUNC c21f4 25 0 boost::_bi::value<boost::function<long int(const boost::shared_ptr<pong::User>&)> >::value
FUNC c221a 74 0 boost::_bi::list4<boost::arg<1>, boost::_bi::value<long int>, boost::_bi::value<boost::function<long int(const boost::shared_ptr<pong::User>&)> >, boost::_bi::value<pong::MatchCondition> >::list4
FUNC c228e 38 0 boost::_bi::bind_t<bool, bool (*)(const boost::shared_ptr<pong::User>&, long int const&, const boost::function<long int(const boost::shared_ptr<pong::User>&)>&, pong::MatchCondition), boost::_bi::list4<boost::arg<1>, boost::_bi::value<long int>, boost::_bi::value<boost::function<long int(const boost::shared_ptr<pong::User>&)> >, boost::_bi::value<pong::MatchCondition> > >::bind_t
FUNC c22c6 81 0 boost::function1<bool, const boost::shared_ptr<pong::User>&>::function1<boost::_bi::bind_t<bool, bool (*)(const boost::shared_ptr<pong::User>&, long int const&, const boost::function<long int(const boost::shared_ptr<pong::User>&)>&, pong::MatchCondition), boost::_bi::list4<boost::arg<1>, boost::_bi::value<long int>, boost::_bi::value<boost::function<long int(const boost::shared_ptr<pong::User>&)> >, boost::_bi::value<pong::MatchCondition> > > >
FUNC c2347 64 0 boost::detail::sp_pointer_construct<pong::User::OpaqueData, pong::User::OpaqueData>
FUNC c23ac 40 0 boost::shared_ptr<pong::Character::OpaqueData>::swap
FUNC c23ec 64 0 boost::detail::sp_pointer_construct<pong::User, pong::User>
FUNC c2450 31 0 std::vector<std::pair<boost::uuids::uuid, boost::shared_ptr<pong::User> >, std::allocator<std::pair<boost::uuids::uuid, boost::shared_ptr<pong::User> > > >::end
FUNC c2482 30 0 std::vector<std::pair<boost::uuids::uuid, boost::shared_ptr<pong::User> >, std::allocator<std::pair<boost::uuids::uuid, boost::shared_ptr<pong::User> > > >::begin
FUNC c24b2 3c 0 __gnu_cxx::operator==<const std::pair<boost::uuids::uuid, boost::shared_ptr<pong::User> >*, std::vector<std::pair<boost::uuids::uuid, boost::shared_ptr<pong::User> > > >
FUNC c24ee 22 0 std::vector<std::pair<boost::uuids::uuid, boost::shared_ptr<pong::User> >, std::allocator<std::pair<boost::uuids::uuid, boost::shared_ptr<pong::User> > > >::max_size
FUNC c2510 26 0 std::vector<std::pair<boost::uuids::uuid, boost::shared_ptr<pong::User> >, std::allocator<std::pair<boost::uuids::uuid, boost::shared_ptr<pong::User> > > >::capacity
FUNC c2536 25 0 std::__make_move_if_noexcept_iterator<std::pair<boost::uuids::uuid, boost::shared_ptr<pong::User> >*, std::move_iterator<std::pair<boost::uuids::uuid, boost::shared_ptr<pong::User> >*> >
FUNC c255c 97 0 std::vector<std::pair<boost::uuids::uuid, boost::shared_ptr<pong::User> >, std::allocator<std::pair<boost::uuids::uuid, boost::shared_ptr<pong::User> > > >::_M_allocate_and_copy<std::move_iterator<std::pair<boost::uuids::uuid, boost::shared_ptr<pong::User> >*> >
FUNC c25f4 e 0 std::_Vector_base<std::pair<boost::uuids::uuid, boost::shared_ptr<pong::User> >, std::allocator<std::pair<boost::uuids::uuid, boost::shared_ptr<pong::User> > > >::_M_get_Tp_allocator
FUNC c2602 29 0 std::_Destroy<std::pair<boost::uuids::uuid, boost::shared_ptr<pong::User> >*, std::pair<boost::uuids::uuid, boost::shared_ptr<pong::User> > >
FUNC c262c 34 0 std::_Vector_base<std::pair<boost::uuids::uuid, boost::shared_ptr<pong::User> >, std::allocator<std::pair<boost::uuids::uuid, boost::shared_ptr<pong::User> > > >::_M_deallocate
FUNC c2660 40 0 boost::shared_ptr<pong::User>::swap
FUNC c26a0 e 0 std::forward<std::pair<boost::uuids::uuid, boost::shared_ptr<pong::User> > >
FUNC c26ae 81 0 std::vector<std::pair<boost::uuids::uuid, boost::shared_ptr<pong::User> >, std::allocator<std::pair<boost::uuids::uuid, boost::shared_ptr<pong::User> > > >::emplace_back<std::pair<boost::uuids::uuid, boost::shared_ptr<pong::User> > >
FUNC c2730 31 0 std::vector<std::pair<std::basic_string<char, std::char_traits<char>, std::allocator<char> >, boost::shared_ptr<pong::User> >, std::allocator<std::pair<std::basic_string<char, std::char_traits<char>, std::allocator<char> >, boost::shared_ptr<pong::User> > > >::end
FUNC c2762 30 0 std::vector<std::pair<std::basic_string<char, std::char_traits<char>, std::allocator<char> >, boost::shared_ptr<pong::User> >, std::allocator<std::pair<std::basic_string<char, std::char_traits<char>, std::allocator<char> >, boost::shared_ptr<pong::User> > > >::begin
FUNC c2792 3c 0 __gnu_cxx::operator==<const std::pair<std::basic_string<char>, boost::shared_ptr<pong::User> >*, std::vector<std::pair<std::basic_string<char>, boost::shared_ptr<pong::User> > > >
FUNC c27ce 22 0 std::vector<std::pair<std::basic_string<char, std::char_traits<char>, std::allocator<char> >, boost::shared_ptr<pong::User> >, std::allocator<std::pair<std::basic_string<char, std::char_traits<char>, std::allocator<char> >, boost::shared_ptr<pong::User> > > >::max_size
FUNC c27f0 37 0 std::vector<std::pair<std::basic_string<char, std::char_traits<char>, std::allocator<char> >, boost::shared_ptr<pong::User> >, std::allocator<std::pair<std::basic_string<char, std::char_traits<char>, std::allocator<char> >, boost::shared_ptr<pong::User> > > >::capacity
FUNC c2827 25 0 std::__make_move_if_noexcept_iterator<std::pair<std::basic_string<char>, boost::shared_ptr<pong::User> >*, std::move_iterator<std::pair<std::basic_string<char>, boost::shared_ptr<pong::User> >*> >
FUNC c284c 97 0 std::vector<std::pair<std::basic_string<char, std::char_traits<char>, std::allocator<char> >, boost::shared_ptr<pong::User> >, std::allocator<std::pair<std::basic_string<char, std::char_traits<char>, std::allocator<char> >, boost::shared_ptr<pong::User> > > >::_M_allocate_and_copy<std::move_iterator<std::pair<std::basic_string<char>, boost::shared_ptr<pong::User> >*> >
FUNC c28e4 e 0 std::_Vector_base<std::pair<std::basic_string<char, std::char_traits<char>, std::allocator<char> >, boost::shared_ptr<pong::User> >, std::allocator<std::pair<std::basic_string<char, std::char_traits<char>, std::allocator<char> >, boost::shared_ptr<pong::User> > > >::_M_get_Tp_allocator
FUNC c28f2 29 0 std::_Destroy<std::pair<std::basic_string<char>, boost::shared_ptr<pong::User> >*, std::pair<std::basic_string<char>, boost::shared_ptr<pong::User> > >
FUNC c291c 34 0 std::_Vector_base<std::pair<std::basic_string<char, std::char_traits<char>, std::allocator<char> >, boost::shared_ptr<pong::User> >, std::allocator<std::pair<std::basic_string<char, std::char_traits<char>, std::allocator<char> >, boost::shared_ptr<pong::User> > > >::_M_deallocate
FUNC c2950 e 0 std::forward<std::pair<std::basic_string<char>, boost::shared_ptr<pong::User> > >
FUNC c295e 81 0 std::vector<std::pair<std::basic_string<char, std::char_traits<char>, std::allocator<char> >, boost::shared_ptr<pong::User> >, std::allocator<std::pair<std::basic_string<char, std::char_traits<char>, std::allocator<char> >, boost::shared_ptr<pong::User> > > >::emplace_back<std::pair<std::basic_string<char, std::char_traits<char>, std::allocator<char> >, boost::shared_ptr<pong::User> > >
FUNC c29df e 0 std::forward<boost::shared_ptr<pong::User> >
FUNC c29ee 81 0 std::vector<boost::shared_ptr<pong::User>, std::allocator<boost::shared_ptr<pong::User> > >::emplace_back<boost::shared_ptr<pong::User> >
FUNC c2a70 30 0 boost::io::basic_ios_fill_saver<char, std::char_traits<char> >::basic_ios_fill_saver
FUNC c2aa0 1a 0 boost::io::basic_ios_fill_saver<char, std::char_traits<char> >::~basic_ios_fill_saver
FUNC c2aba 1a 0 std::_Vector_base<boost::shared_ptr<const fun::AttributeModel>, std::allocator<boost::shared_ptr<const fun::AttributeModel> > >::_Vector_impl::~_Vector_impl
FUNC c2ad4 1a 0 std::_Vector_base<boost::shared_ptr<const fun::AttributeModel>, std::allocator<boost::shared_ptr<const fun::AttributeModel> > >::_Vector_base
FUNC c2aee 4f 0 std::_Vector_base<boost::shared_ptr<const fun::AttributeModel>, std::allocator<boost::shared_ptr<const fun::AttributeModel> > >::~_Vector_base
FUNC c2b3e e 0 std::_Vector_base<boost::shared_ptr<const fun::AttributeModel>, std::allocator<boost::shared_ptr<const fun::AttributeModel> > >::_M_get_Tp_allocator
FUNC c2b4c 29 0 std::_Destroy<boost::shared_ptr<const fun::AttributeModel>*, boost::shared_ptr<const fun::AttributeModel> >
FUNC c2b75 64 0 boost::detail::sp_pointer_construct<const fun::AttributeModel, fun::AttributeModel>
FUNC c2bd9 e 0 std::forward<boost::shared_ptr<const fun::AttributeModel> >
FUNC c2be8 81 0 std::vector<boost::shared_ptr<const fun::AttributeModel>, std::allocator<boost::shared_ptr<const fun::AttributeModel> > >::emplace_back<boost::shared_ptr<const fun::AttributeModel> >
FUNC c2c69 64 0 boost::detail::sp_pointer_construct<const fun::ObjectModel, fun::ObjectModel>
FUNC c2ccd e 0 std::forward<std::_Rb_tree_node_base*&>
FUNC c2cdc 3b 0 std::pair<std::_Rb_tree_node_base*, std::_Rb_tree_node_base*>::pair<std::_Rb_tree_node_base*&, void>
FUNC c2d18 43 0 std::pair<std::_Rb_tree_node_base*, std::_Rb_tree_node_base*>::pair<std::_Rb_tree_node_base*&, std::_Rb_tree_node_base*&, void>
FUNC c2d5c 3b 0 std::pair<std::_Rb_tree_node_base*, std::_Rb_tree_node_base*>::pair<std::_Rb_tree_node_base*&, void>
FUNC c2d97 21 0 boost::exception_detail::set_info<boost::exception_detail::clone_impl<boost::exception_detail::bad_alloc_> >
FUNC c2db8 21 0 boost::exception_detail::set_info<boost::exception_detail::clone_impl<boost::exception_detail::bad_alloc_> >
FUNC c2dd9 1f 0 boost::exception_detail::set_info<boost::exception_detail::clone_impl<boost::exception_detail::bad_alloc_> >
FUNC c2df8 64 0 boost::detail::sp_pointer_construct<const boost::exception_detail::clone_base, boost::exception_detail::clone_impl<boost::exception_detail::bad_alloc_> >
FUNC c2e5c 21 0 boost::exception_detail::set_info<boost::exception_detail::clone_impl<boost::exception_detail::bad_exception_> >
FUNC c2e7d 21 0 boost::exception_detail::set_info<boost::exception_detail::clone_impl<boost::exception_detail::bad_exception_> >
FUNC c2e9e 1f 0 boost::exception_detail::set_info<boost::exception_detail::clone_impl<boost::exception_detail::bad_exception_> >
FUNC c2ebd 64 0 boost::detail::sp_pointer_construct<const boost::exception_detail::clone_base, boost::exception_detail::clone_impl<boost::exception_detail::bad_exception_> >
FUNC c2f21 29 0 boost::enable_error_info<boost::bad_function_call>
FUNC c2f4a 64 0 boost::exception_detail::error_info_injector<boost::bad_function_call>::~error_info_injector
FUNC c2fb8 26 0 boost::exception_detail::error_info_injector<boost::bad_function_call>::~error_info_injector
FUNC c2fe4 29 0 boost::enable_current_exception<boost::exception_detail::error_info_injector<boost::bad_function_call> >
FUNC c300e 8a 0 boost::exception_detail::clone_impl<boost::exception_detail::error_info_injector<boost::bad_function_call> >::~clone_impl
FUNC c30ae 26 0 boost::exception_detail::clone_impl<boost::exception_detail::error_info_injector<boost::bad_function_call> >::~clone_impl
FUNC c30e3 e 0 std::_Iter_base<unsigned char const*, false>::_S_base
FUNC c30f1 3f 0 std::__equal<true>::equal<unsigned char>
FUNC c3130 86 0 std::__lexicographical_compare<true>::__lc<unsigned char, unsigned char>
FUNC c31b6 2b 0 std::min<long unsigned int>
FUNC c31e2 4d 0 boost::variant<fun::AttributeValue::kNull, bool, long int, double, std::basic_string<char, std::char_traits<char>, std::allocator<char> >, boost::uuids::uuid, boost::detail::variant::void_, boost::detail::variant::void_, boost::detail::variant::void_, boost::detail::variant::void_, boost::detail::variant::void_, boost::detail::variant::void_, boost::detail::variant::void_, boost::detail::variant::void_, boost::detail::variant::void_, boost::detail::variant::void_, boost::detail::variant::void_, boost::detail::variant::void_, boost::detail::variant::void_, boost::detail::variant::void_>::internal_apply_visitor<boost::detail::variant::destroyer>
FUNC c3230 e 0 boost::detail::aligned_storage::aligned_storage_imp<16ul, 8ul>::address
FUNC c323e 13 0 boost::variant<fun::AttributeValue::kNull, bool, long int, double, std::basic_string<char, std::char_traits<char>, std::allocator<char> >, boost::uuids::uuid, boost::detail::variant::void_, boost::detail::variant::void_, boost::detail::variant::void_, boost::detail::variant::void_, boost::detail::variant::void_, boost::detail::variant::void_, boost::detail::variant::void_, boost::detail::variant::void_, boost::detail::variant::void_, boost::detail::variant::void_, boost::detail::variant::void_, boost::detail::variant::void_, boost::detail::variant::void_, boost::detail::variant::void_>::using_backup
FUNC c3251 1a 0 std::allocator_traits<std::allocator<boost::uuids::uuid> >::max_size
FUNC c326c e 0 std::_Vector_base<boost::uuids::uuid, std::allocator<boost::uuids::uuid> >::_M_get_Tp_allocator
FUNC c327a 19 0 std::move_iterator<boost::uuids::uuid*>::move_iterator
FUNC c3294 38 0 std::_Vector_base<boost::uuids::uuid, std::allocator<boost::uuids::uuid> >::_M_allocate
FUNC c32cc 31 0 std::__uninitialized_copy_a<std::move_iterator<boost::uuids::uuid*>, boost::uuids::uuid*, boost::uuids::uuid>
FUNC c32fd 25 0 std::_Destroy<boost::uuids::uuid*>
FUNC c3322 22 0 __gnu_cxx::new_allocator<boost::uuids::uuid>::deallocate
FUNC c3344 38 0 std::allocator_traits<std::allocator<boost::uuids::uuid> >::construct<boost::uuids::uuid, boost::uuids::uuid>
FUNC c337c 1e9 0 std::vector<boost::uuids::uuid, std::allocator<boost::uuids::uuid> >::_M_emplace_back_aux<boost::uuids::uuid>
FUNC c3566 a 0 boost::_bi::storage1<boost::arg<1> >::storage1
FUNC c3570 6e 0 boost::function1<boost::uuids::uuid, const boost::shared_ptr<pong::Character>&>::assign_to<boost::_bi::bind_t<const boost::uuids::uuid&, boost::_mfi::cmf0<const boost::uuids::uuid&, pong::Character>, boost::_bi::list1<boost::arg<1> > > >
FUNC c35de 15 0 boost::function1<boost::uuids::uuid, const boost::shared_ptr<pong::Character>&>::get_vtable
FUNC c35f4 37 0 boost::detail::function::basic_vtable1<boost::uuids::uuid, const boost::shared_ptr<pong::Character>&>::clear
FUNC c362c 8e 0 boost::function1<boost::uuids::uuid, const boost::shared_ptr<pong::Character>&>::assign_to_own
FUNC c36ba 8d 0 boost::_bi::storage4<boost::arg<1>, boost::_bi::value<boost::uuids::uuid>, boost::_bi::value<boost::function<boost::uuids::uuid(const boost::shared_ptr<pong::Character>&)> >, boost::_bi::value<pong::MatchCondition> >::storage4
FUNC c3748 c0 0 boost::function1<bool, const boost::shared_ptr<pong::Character>&>::assign_to<boost::_bi::bind_t<bool, bool (*)(const boost::shared_ptr<pong::Character>&, const boost::uuids::uuid&, const boost::function<boost::uuids::uuid(const boost::shared_ptr<pong::Character>&)>&, pong::MatchCondition), boost::_bi::list4<boost::arg<1>, boost::_bi::value<boost::uuids::uuid>, boost::_bi::value<boost::function<boost::uuids::uuid(const boost::shared_ptr<pong::Character>&)> >, boost::_bi::value<pong::MatchCondition> > > >
FUNC c3808 15 0 boost::function1<bool, const boost::shared_ptr<pong::Character>&>::get_vtable
FUNC c381e 37 0 boost::detail::function::basic_vtable1<bool, const boost::shared_ptr<pong::Character>&>::clear
FUNC c3856 6e 0 boost::function1<std::basic_string<char, std::char_traits<char>, std::allocator<char> >, const boost::shared_ptr<pong::Character>&>::assign_to<boost::_bi::bind_t<std::basic_string<char>, boost::_mfi::cmf0<std::basic_string<char>, pong::Character>, boost::_bi::list1<boost::arg<1> > > >
FUNC c38c4 15 0 boost::function1<std::basic_string<char, std::char_traits<char>, std::allocator<char> >, const boost::shared_ptr<pong::Character>&>::get_vtable
FUNC c38da 37 0 boost::detail::function::basic_vtable1<std::basic_string<char, std::char_traits<char>, std::allocator<char> >, const boost::shared_ptr<pong::Character>&>::clear
FUNC c3912 8e 0 boost::function1<std::basic_string<char, std::char_traits<char>, std::allocator<char> >, const boost::shared_ptr<pong::Character>&>::assign_to_own
FUNC c39a0 ae 0 boost::_bi::storage4<boost::arg<1>, boost::_bi::value<std::basic_string<char, std::char_traits<char>, std::allocator<char> > >, boost::_bi::value<boost::function<std::basic_string<char, std::char_traits<char>, std::allocator<char> >(const boost::shared_ptr<pong::Character>&)> >, boost::_bi::value<pong::MatchCondition> >::storage4
FUNC c3a4e 9d 0 boost::function1<bool, const boost::shared_ptr<pong::Character>&>::assign_to<boost::_bi::bind_t<bool, bool (*)(const boost::shared_ptr<pong::Character>&, const std::basic_string<char>&, const boost::function<std::basic_string<char>(const boost::shared_ptr<pong::Character>&)>&, pong::MatchCondition), boost::_bi::list4<boost::arg<1>, boost::_bi::value<std::basic_string<char> >, boost::_bi::value<boost::function<std::basic_string<char>(const boost::shared_ptr<pong::Character>&)> >, boost::_bi::value<pong::MatchCondition> > > >
FUNC c3aec 6e 0 boost::function1<long int, const boost::shared_ptr<pong::Character>&>::assign_to<boost::_bi::bind_t<long int, boost::_mfi::cmf0<long int, pong::Character>, boost::_bi::list1<boost::arg<1> > > >
FUNC c3b5a 15 0 boost::function1<long int, const boost::shared_ptr<pong::Character>&>::get_vtable
FUNC c3b70 37 0 boost::detail::function::basic_vtable1<long int, const boost::shared_ptr<pong::Character>&>::clear
FUNC c3ba8 8e 0 boost::function1<long int, const boost::shared_ptr<pong::Character>&>::assign_to_own
FUNC c3c36 7e 0 boost::_bi::storage4<boost::arg<1>, boost::_bi::value<long int>, boost::_bi::value<boost::function<long int(const boost::shared_ptr<pong::Character>&)> >, boost::_bi::value<pong::MatchCondition> >::storage4
FUNC c3cb4 9d 0 boost::function1<bool, const boost::shared_ptr<pong::Character>&>::assign_to<boost::_bi::bind_t<bool, bool (*)(const boost::shared_ptr<pong::Character>&, long int const&, const boost::function<long int(const boost::shared_ptr<pong::Character>&)>&, pong::MatchCondition), boost::_bi::list4<boost::arg<1>, boost::_bi::value<long int>, boost::_bi::value<boost::function<long int(const boost::shared_ptr<pong::Character>&)> >, boost::_bi::value<pong::MatchCondition> > > >
FUNC c3d52 88 0 boost::detail::shared_count::shared_count<pong::Character::OpaqueData>
FUNC c3dda 83 0 std::_Rb_tree<std::basic_string<char, std::char_traits<char>, std::allocator<char> >, std::pair<const std::basic_string<char, std::char_traits<char>, std::allocator<char> >, boost::shared_ptr<fun::AttributeValue> >, std::_Select1st<std::pair<const std::basic_string<char, std::char_traits<char>, std::allocator<char> >, boost::shared_ptr<fun::AttributeValue> > >, std::less<std::basic_string<char, std::char_traits<char>, std::allocator<char> > >, std::allocator<std::pair<const std::basic_string<char, std::char_traits<char>, std::allocator<char> >, boost::shared_ptr<fun::AttributeValue> > > >::_Rb_tree_impl<std::less<std::basic_string<char, std::char_traits<char>, std::allocator<char> > >, true>::_Rb_tree_impl
FUNC c3e5e a 0 __gnu_cxx::new_allocator<std::_Rb_tree_node<std::pair<const std::basic_string<char, std::char_traits<char>, std::allocator<char> >, boost::shared_ptr<fun::AttributeValue> > > >::~new_allocator
FUNC c3e68 12 0 std::_Rb_tree<std::basic_string<char, std::char_traits<char>, std::allocator<char> >, std::pair<const std::basic_string<char, std::char_traits<char>, std::allocator<char> >, boost::shared_ptr<fun::AttributeValue> >, std::_Select1st<std::pair<const std::basic_string<char, std::char_traits<char>, std::allocator<char> >, boost::shared_ptr<fun::AttributeValue> > >, std::less<std::basic_string<char, std::char_traits<char>, std::allocator<char> > >, std::allocator<std::pair<const std::basic_string<char, std::char_traits<char>, std::allocator<char> >, boost::shared_ptr<fun::AttributeValue> > > >::_S_right
FUNC c3e7a 12 0 std::_Rb_tree<std::basic_string<char, std::char_traits<char>, std::allocator<char> >, std::pair<const std::basic_string<char, std::char_traits<char>, std::allocator<char> >, boost::shared_ptr<fun::AttributeValue> >, std::_Select1st<std::pair<const std::basic_string<char, std::char_traits<char>, std::allocator<char> >, boost::shared_ptr<fun::AttributeValue> > >, std::less<std::basic_string<char, std::char_traits<char>, std::allocator<char> > >, std::allocator<std::pair<const std::basic_string<char, std::char_traits<char>, std::allocator<char> >, boost::shared_ptr<fun::AttributeValue> > > >::_S_left
FUNC c3e8c 40 0 std::_Rb_tree<std::basic_string<char, std::char_traits<char>, std::allocator<char> >, std::pair<const std::basic_string<char, std::char_traits<char>, std::allocator<char> >, boost::shared_ptr<fun::AttributeValue> >, std::_Select1st<std::pair<const std::basic_string<char, std::char_traits<char>, std::allocator<char> >, boost::shared_ptr<fun::AttributeValue> > >, std::less<std::basic_string<char, std::char_traits<char>, std::allocator<char> > >, std::allocator<std::pair<const std::basic_string<char, std::char_traits<char>, std::allocator<char> >, boost::shared_ptr<fun::AttributeValue> > > >::_M_destroy_node
FUNC c3ecc 4c 0 std::_Rb_tree<std::basic_string<char, std::char_traits<char>, std::allocator<char> >, std::pair<const std::basic_string<char, std::char_traits<char>, std::allocator<char> >, boost::shared_ptr<fun::AttributeValue> >, std::_Select1st<std::pair<const std::basic_string<char, std::char_traits<char>, std::allocator<char> >, boost::shared_ptr<fun::AttributeValue> > >, std::less<std::basic_string<char, std::char_traits<char>, std::allocator<char> > >, std::allocator<std::pair<const std::basic_string<char, std::char_traits<char>, std::allocator<char> >, boost::shared_ptr<fun::AttributeValue> > > >::lower_bound
FUNC c3f18 a 0 std::_Rb_tree<std::basic_string<char, std::char_traits<char>, std::allocator<char> >, std::pair<const std::basic_string<char, std::char_traits<char>, std::allocator<char> >, boost::shared_ptr<fun::AttributeValue> >, std::_Select1st<std::pair<const std::basic_string<char, std::char_traits<char>, std::allocator<char> >, boost::shared_ptr<fun::AttributeValue> > >, std::less<std::basic_string<char, std::char_traits<char>, std::allocator<char> > >, std::allocator<std::pair<const std::basic_string<char, std::char_traits<char>, std::allocator<char> >, boost::shared_ptr<fun::AttributeValue> > > >::key_comp
FUNC c3f22 29 0 std::_Rb_tree<std::basic_string<char, std::char_traits<char>, std::allocator<char> >, std::pair<const std::basic_string<char, std::char_traits<char>, std::allocator<char> >, boost::shared_ptr<fun::AttributeValue> >, std::_Select1st<std::pair<const std::basic_string<char, std::char_traits<char>, std::allocator<char> >, boost::shared_ptr<fun::AttributeValue> > >, std::less<std::basic_string<char, std::char_traits<char>, std::allocator<char> > >, std::allocator<std::pair<const std::basic_string<char, std::char_traits<char>, std::allocator<char> >, boost::shared_ptr<fun::AttributeValue> > > >::end
FUNC c3f4c bf 0 std::_Rb_tree<std::basic_string<char, std::char_traits<char>, std::allocator<char> >, std::pair<const std::basic_string<char, std::char_traits<char>, std::allocator<char> >, boost::shared_ptr<fun::AttributeValue> >, std::_Select1st<std::pair<const std::basic_string<char, std::char_traits<char>, std::allocator<char> >, boost::shared_ptr<fun::AttributeValue> > >, std::less<std::basic_string<char, std::char_traits<char>, std::allocator<char> > >, std::allocator<std::pair<const std::basic_string<char, std::char_traits<char>, std::allocator<char> >, boost::shared_ptr<fun::AttributeValue> > > >::_M_create_node<const std::piecewise_construct_t&, std::tuple<std::basic_string<char, std::char_traits<char>, std::allocator<char> >&&>, std::tuple<> >
FUNC c400c 379 0 std::_Rb_tree<std::basic_string<char, std::char_traits<char>, std::allocator<char> >, std::pair<const std::basic_string<char, std::char_traits<char>, std::allocator<char> >, boost::shared_ptr<fun::AttributeValue> >, std::_Select1st<std::pair<const std::basic_string<char, std::char_traits<char>, std::allocator<char> >, boost::shared_ptr<fun::AttributeValue> > >, std::less<std::basic_string<char, std::char_traits<char>, std::allocator<char> > >, std::allocator<std::pair<const std::basic_string<char, std::char_traits<char>, std::allocator<char> >, boost::shared_ptr<fun::AttributeValue> > > >::_M_get_insert_hint_unique_pos
FUNC c4385 2c 0 std::_Rb_tree<std::basic_string<char, std::char_traits<char>, std::allocator<char> >, std::pair<const std::basic_string<char, std::char_traits<char>, std::allocator<char> >, boost::shared_ptr<fun::AttributeValue> >, std::_Select1st<std::pair<const std::basic_string<char, std::char_traits<char>, std::allocator<char> >, boost::shared_ptr<fun::AttributeValue> > >, std::less<std::basic_string<char, std::char_traits<char>, std::allocator<char> > >, std::allocator<std::pair<const std::basic_string<char, std::char_traits<char>, std::allocator<char> >, boost::shared_ptr<fun::AttributeValue> > > >::_S_key
FUNC c43b2 c2 0 std::_Rb_tree<std::basic_string<char, std::char_traits<char>, std::allocator<char> >, std::pair<const std::basic_string<char, std::char_traits<char>, std::allocator<char> >, boost::shared_ptr<fun::AttributeValue> >, std::_Select1st<std::pair<const std::basic_string<char, std::char_traits<char>, std::allocator<char> >, boost::shared_ptr<fun::AttributeValue> > >, std::less<std::basic_string<char, std::char_traits<char>, std::allocator<char> > >, std::allocator<std::pair<const std::basic_string<char, std::char_traits<char>, std::allocator<char> >, boost::shared_ptr<fun::AttributeValue> > > >::_M_insert_node
FUNC c4474 19 0 std::_Rb_tree_iterator<std::pair<const std::basic_string<char, std::char_traits<char>, std::allocator<char> >, boost::shared_ptr<fun::AttributeValue> > >::_Rb_tree_iterator
FUNC c448d e 0 std::move<fun::AttributeValue*&>
FUNC c449b 51 0 std::swap<fun::AttributeValue*>
FUNC c44ec 88 0 boost::detail::shared_count::shared_count<pong::Character>
FUNC c4574 1c 0 __gnu_cxx::__normal_iterator<const std::pair<boost::uuids::uuid, boost::shared_ptr<pong::Character> >*, std::vector<std::pair<boost::uuids::uuid, boost::shared_ptr<pong::Character> >, std::allocator<std::pair<boost::uuids::uuid, boost::shared_ptr<pong::Character> > > > >::__normal_iterator
FUNC c4590 e 0 __gnu_cxx::__normal_iterator<const std::pair<boost::uuids::uuid, boost::shared_ptr<pong::Character> >*, std::vector<std::pair<boost::uuids::uuid, boost::shared_ptr<pong::Character> >, std::allocator<std::pair<boost::uuids::uuid, boost::shared_ptr<pong::Character> > > > >::base
FUNC c459e 3d 0 std::_Vector_base<std::pair<boost::uuids::uuid, boost::shared_ptr<fun::Object> >, std::allocator<std::pair<boost::uuids::uuid, boost::shared_ptr<fun::Object> > > >::_Vector_impl::_Vector_impl
FUNC c45dc 1a 0 std::allocator<std::pair<boost::uuids::uuid, boost::shared_ptr<fun::Object> > >::~allocator
FUNC c45f6 25 0 std::_Destroy<std::pair<boost::uuids::uuid, boost::shared_ptr<fun::Object> >*>
FUNC c461b 1a 0 std::allocator_traits<std::allocator<std::pair<boost::uuids::uuid, boost::shared_ptr<fun::Object> > > >::max_size
FUNC c4636 e 0 std::_Vector_base<std::pair<boost::uuids::uuid, boost::shared_ptr<fun::Object> >, std::allocator<std::pair<boost::uuids::uuid, boost::shared_ptr<fun::Object> > > >::_M_get_Tp_allocator
FUNC c4644 19 0 std::move_iterator<std::pair<boost::uuids::uuid, boost::shared_ptr<fun::Object> >*>::move_iterator
FUNC c465e 38 0 std::_Vector_base<std::pair<boost::uuids::uuid, boost::shared_ptr<fun::Object> >, std::allocator<std::pair<boost::uuids::uuid, boost::shared_ptr<fun::Object> > > >::_M_allocate
FUNC c4696 31 0 std::__uninitialized_copy_a<std::move_iterator<std::pair<boost::uuids::uuid, boost::shared_ptr<fun::Object> >*>, std::pair<boost::uuids::uuid, boost::shared_ptr<fun::Object> >*, std::pair<boost::uuids::uuid, boost::shared_ptr<fun::Object> > >
FUNC c46c8 22 0 __gnu_cxx::new_allocator<std::pair<boost::uuids::uuid, boost::shared_ptr<fun::Object> > >::deallocate
FUNC c46ea 1a 0 std::allocator_traits<std::allocator<std::pair<boost::uuids::uuid, boost::shared_ptr<pong::Character> > > >::max_size
FUNC c4704 e 0 std::_Vector_base<std::pair<boost::uuids::uuid, boost::shared_ptr<pong::Character> >, std::allocator<std::pair<boost::uuids::uuid, boost::shared_ptr<pong::Character> > > >::_M_get_Tp_allocator
FUNC c4712 19 0 std::move_iterator<std::pair<boost::uuids::uuid, boost::shared_ptr<pong::Character> >*>::move_iterator
FUNC c472c 38 0 std::_Vector_base<std::pair<boost::uuids::uuid, boost::shared_ptr<pong::Character> >, std::allocator<std::pair<boost::uuids::uuid, boost::shared_ptr<pong::Character> > > >::_M_allocate
FUNC c4764 31 0 std::__uninitialized_copy_a<std::move_iterator<std::pair<boost::uuids::uuid, boost::shared_ptr<pong::Character> >*>, std::pair<boost::uuids::uuid, boost::shared_ptr<pong::Character> >*, std::pair<boost::uuids::uuid, boost::shared_ptr<pong::Character> > >
FUNC c4795 25 0 std::_Destroy<std::pair<boost::uuids::uuid, boost::shared_ptr<pong::Character> >*>
FUNC c47ba 22 0 __gnu_cxx::new_allocator<std::pair<boost::uuids::uuid, boost::shared_ptr<pong::Character> > >::deallocate
FUNC c47dc e 0 std::move<pong::Character*&>
FUNC c47ea 51 0 std::swap<pong::Character*>
FUNC c483b 38 0 std::allocator_traits<std::allocator<std::pair<boost::uuids::uuid, boost::shared_ptr<pong::Character> > > >::construct<std::pair<boost::uuids::uuid, boost::shared_ptr<pong::Character> >, std::pair<boost::uuids::uuid, boost::shared_ptr<pong::Character> > >
FUNC c4874 1e9 0 std::vector<std::pair<boost::uuids::uuid, boost::shared_ptr<pong::Character> >, std::allocator<std::pair<boost::uuids::uuid, boost::shared_ptr<pong::Character> > > >::_M_emplace_back_aux<std::pair<boost::uuids::uuid, boost::shared_ptr<pong::Character> > >
FUNC c4a5e 88 0 boost::detail::shared_count::shared_count<fun::AttributeValue>
FUNC c4ae6 1c 0 __gnu_cxx::__normal_iterator<const std::pair<std::basic_string<char, std::char_traits<char>, std::allocator<char> >, boost::shared_ptr<pong::Character> >*, std::vector<std::pair<std::basic_string<char, std::char_traits<char>, std::allocator<char> >, boost::shared_ptr<pong::Character> >, std::allocator<std::pair<std::basic_string<char, std::char_traits<char>, std::allocator<char> >, boost::shared_ptr<pong::Character> > > > >::__normal_iterator
FUNC c4b02 e 0 __gnu_cxx::__normal_iterator<const std::pair<std::basic_string<char, std::char_traits<char>, std::allocator<char> >, boost::shared_ptr<pong::Character> >*, std::vector<std::pair<std::basic_string<char, std::char_traits<char>, std::allocator<char> >, boost::shared_ptr<pong::Character> >, std::allocator<std::pair<std::basic_string<char, std::char_traits<char>, std::allocator<char> >, boost::shared_ptr<pong::Character> > > > >::base
FUNC c4b10 3d 0 std::_Vector_base<boost::shared_ptr<fun::AttributeValue>, std::allocator<boost::shared_ptr<fun::AttributeValue> > >::_Vector_impl::_Vector_impl
FUNC c4b4e 1a 0 std::allocator<boost::shared_ptr<fun::AttributeValue> >::~allocator
FUNC c4b68 25 0 std::_Destroy<boost::shared_ptr<fun::AttributeValue>*>
FUNC c4b8d 1a 0 std::allocator_traits<std::allocator<boost::shared_ptr<fun::AttributeValue> > >::max_size
FUNC c4ba8 e 0 std::_Vector_base<boost::shared_ptr<fun::AttributeValue>, std::allocator<boost::shared_ptr<fun::AttributeValue> > >::_M_get_Tp_allocator
FUNC c4bb6 19 0 std::move_iterator<boost::shared_ptr<fun::AttributeValue>*>::move_iterator
FUNC c4bd0 38 0 std::_Vector_base<boost::shared_ptr<fun::AttributeValue>, std::allocator<boost::shared_ptr<fun::AttributeValue> > >::_M_allocate
FUNC c4c08 31 0 std::__uninitialized_copy_a<std::move_iterator<boost::shared_ptr<fun::AttributeValue>*>, boost::shared_ptr<fun::AttributeValue>*, boost::shared_ptr<fun::AttributeValue> >
FUNC c4c3a 22 0 __gnu_cxx::new_allocator<boost::shared_ptr<fun::AttributeValue> >::deallocate
FUNC c4c5c 38 0 std::allocator_traits<std::allocator<boost::shared_ptr<fun::AttributeValue> > >::construct<boost::shared_ptr<fun::AttributeValue>, boost::shared_ptr<fun::AttributeValue> >
FUNC c4c94 1e9 0 std::vector<boost::shared_ptr<fun::AttributeValue>, std::allocator<boost::shared_ptr<fun::AttributeValue> > >::_M_emplace_back_aux<boost::shared_ptr<fun::AttributeValue> >
FUNC c4e7e 3d 0 std::_Vector_base<std::pair<boost::shared_ptr<fun::AttributeValue>, boost::shared_ptr<fun::Object> >, std::allocator<std::pair<boost::shared_ptr<fun::AttributeValue>, boost::shared_ptr<fun::Object> > > >::_Vector_impl::_Vector_impl
FUNC c4ebc 1a 0 std::allocator<std::pair<boost::shared_ptr<fun::AttributeValue>, boost::shared_ptr<fun::Object> > >::~allocator
FUNC c4ed6 34 0 std::_Vector_base<std::pair<boost::shared_ptr<fun::AttributeValue>, boost::shared_ptr<fun::Object> >, std::allocator<std::pair<boost::shared_ptr<fun::AttributeValue>, boost::shared_ptr<fun::Object> > > >::_M_deallocate
FUNC c4f0a 25 0 std::_Destroy<std::pair<boost::shared_ptr<fun::AttributeValue>, boost::shared_ptr<fun::Object> >*>
FUNC c4f2f 1a 0 std::allocator_traits<std::allocator<std::pair<std::basic_string<char, std::char_traits<char>, std::allocator<char> >, boost::shared_ptr<pong::Character> > > >::max_size
FUNC c4f4a e 0 std::_Vector_base<std::pair<std::basic_string<char, std::char_traits<char>, std::allocator<char> >, boost::shared_ptr<pong::Character> >, std::allocator<std::pair<std::basic_string<char, std::char_traits<char>, std::allocator<char> >, boost::shared_ptr<pong::Character> > > >::_M_get_Tp_allocator
FUNC c4f58 19 0 std::move_iterator<std::pair<std::basic_string<char, std::char_traits<char>, std::allocator<char> >, boost::shared_ptr<pong::Character> >*>::move_iterator
FUNC c4f72 38 0 std::_Vector_base<std::pair<std::basic_string<char, std::char_traits<char>, std::allocator<char> >, boost::shared_ptr<pong::Character> >, std::allocator<std::pair<std::basic_string<char, std::char_traits<char>, std::allocator<char> >, boost::shared_ptr<pong::Character> > > >::_M_allocate
FUNC c4faa 31 0 std::__uninitialized_copy_a<std::move_iterator<std::pair<std::basic_string<char>, boost::shared_ptr<pong::Character> >*>, std::pair<std::basic_string<char>, boost::shared_ptr<pong::Character> >*, std::pair<std::basic_string<char>, boost::shared_ptr<pong::Character> > >
FUNC c4fdb 25 0 std::_Destroy<std::pair<std::basic_string<char>, boost::shared_ptr<pong::Character> >*>
FUNC c5000 22 0 __gnu_cxx::new_allocator<std::pair<std::basic_string<char, std::char_traits<char>, std::allocator<char> >, boost::shared_ptr<pong::Character> > >::deallocate
FUNC c5022 38 0 std::allocator_traits<std::allocator<std::pair<std::basic_string<char, std::char_traits<char>, std::allocator<char> >, boost::shared_ptr<pong::Character> > > >::construct<std::pair<std::basic_string<char>, boost::shared_ptr<pong::Character> >, std::pair<std::basic_string<char, std::char_traits<char>, std::allocator<char> >, boost::shared_ptr<pong::Character> > >
FUNC c505a 21b 0 std::vector<std::pair<std::basic_string<char, std::char_traits<char>, std::allocator<char> >, boost::shared_ptr<pong::Character> >, std::allocator<std::pair<std::basic_string<char, std::char_traits<char>, std::allocator<char> >, boost::shared_ptr<pong::Character> > > >::_M_emplace_back_aux<std::pair<std::basic_string<char, std::char_traits<char>, std::allocator<char> >, boost::shared_ptr<pong::Character> > >
FUNC c5276 3d 0 std::_Vector_base<boost::shared_ptr<fun::Object>, std::allocator<boost::shared_ptr<fun::Object> > >::_Vector_impl::_Vector_impl
FUNC c52b4 1a 0 std::allocator<boost::shared_ptr<fun::Object> >::~allocator
FUNC c52ce 34 0 std::_Vector_base<boost::shared_ptr<fun::Object>, std::allocator<boost::shared_ptr<fun::Object> > >::_M_deallocate
FUNC c5302 25 0 std::_Destroy<boost::shared_ptr<fun::Object>*>
FUNC c5327 38 0 std::allocator_traits<std::allocator<boost::shared_ptr<pong::Character> > >::construct<boost::shared_ptr<pong::Character>, boost::shared_ptr<pong::Character> >
FUNC c5360 1e9 0 std::vector<boost::shared_ptr<pong::Character>, std::allocator<boost::shared_ptr<pong::Character> > >::_M_emplace_back_aux<boost::shared_ptr<pong::Character> >
FUNC c554a 6e 0 boost::function1<boost::uuids::uuid, const boost::shared_ptr<pong::User>&>::assign_to<boost::_bi::bind_t<const boost::uuids::uuid&, boost::_mfi::cmf0<const boost::uuids::uuid&, pong::User>, boost::_bi::list1<boost::arg<1> > > >
FUNC c55b8 15 0 boost::function1<boost::uuids::uuid, const boost::shared_ptr<pong::User>&>::get_vtable
FUNC c55ce 37 0 boost::detail::function::basic_vtable1<boost::uuids::uuid, const boost::shared_ptr<pong::User>&>::clear
FUNC c5606 8e 0 boost::function1<boost::uuids::uuid, const boost::shared_ptr<pong::User>&>::assign_to_own
FUNC c5694 8d 0 boost::_bi::storage4<boost::arg<1>, boost::_bi::value<boost::uuids::uuid>, boost::_bi::value<boost::function<boost::uuids::uuid(const boost::shared_ptr<pong::User>&)> >, boost::_bi::value<pong::MatchCondition> >::storage4
FUNC c5722 c0 0 boost::function1<bool, const boost::shared_ptr<pong::User>&>::assign_to<boost::_bi::bind_t<bool, bool (*)(const boost::shared_ptr<pong::User>&, const boost::uuids::uuid&, const boost::function<boost::uuids::uuid(const boost::shared_ptr<pong::User>&)>&, pong::MatchCondition), boost::_bi::list4<boost::arg<1>, boost::_bi::value<boost::uuids::uuid>, boost::_bi::value<boost::function<boost::uuids::uuid(const boost::shared_ptr<pong::User>&)> >, boost::_bi::value<pong::MatchCondition> > > >
FUNC c57e2 6e 0 boost::function1<std::basic_string<char, std::char_traits<char>, std::allocator<char> >, const boost::shared_ptr<pong::User>&>::assign_to<boost::_bi::bind_t<std::basic_string<char>, boost::_mfi::cmf0<std::basic_string<char>, pong::User>, boost::_bi::list1<boost::arg<1> > > >
FUNC c5850 15 0 boost::function1<std::basic_string<char, std::char_traits<char>, std::allocator<char> >, const boost::shared_ptr<pong::User>&>::get_vtable
FUNC c5866 37 0 boost::detail::function::basic_vtable1<std::basic_string<char, std::char_traits<char>, std::allocator<char> >, const boost::shared_ptr<pong::User>&>::clear
FUNC c589e 8e 0 boost::function1<std::basic_string<char, std::char_traits<char>, std::allocator<char> >, const boost::shared_ptr<pong::User>&>::assign_to_own
FUNC c592c ae 0 boost::_bi::storage4<boost::arg<1>, boost::_bi::value<std::basic_string<char, std::char_traits<char>, std::allocator<char> > >, boost::_bi::value<boost::function<std::basic_string<char, std::char_traits<char>, std::allocator<char> >(const boost::shared_ptr<pong::User>&)> >, boost::_bi::value<pong::MatchCondition> >::storage4
FUNC c59da 9d 0 boost::function1<bool, const boost::shared_ptr<pong::User>&>::assign_to<boost::_bi::bind_t<bool, bool (*)(const boost::shared_ptr<pong::User>&, const std::basic_string<char>&, const boost::function<std::basic_string<char>(const boost::shared_ptr<pong::User>&)>&, pong::MatchCondition), boost::_bi::list4<boost::arg<1>, boost::_bi::value<std::basic_string<char> >, boost::_bi::value<boost::function<std::basic_string<char>(const boost::shared_ptr<pong::User>&)> >, boost::_bi::value<pong::MatchCondition> > > >
FUNC c5a78 6e 0 boost::function1<boost::shared_ptr<pong::Character>, const boost::shared_ptr<pong::User>&>::assign_to<boost::_bi::bind_t<boost::shared_ptr<pong::Character>, boost::_mfi::cmf0<boost::shared_ptr<pong::Character>, pong::User>, boost::_bi::list1<boost::arg<1> > > >
FUNC c5ae6 15 0 boost::function1<boost::shared_ptr<pong::Character>, const boost::shared_ptr<pong::User>&>::get_vtable
FUNC c5afc 37 0 boost::detail::function::basic_vtable1<boost::shared_ptr<pong::Character>, const boost::shared_ptr<pong::User>&>::clear
FUNC c5b34 8e 0 boost::function1<bool, const boost::shared_ptr<pong::Character>&>::assign_to_own
FUNC c5bc2 8e 0 boost::function1<boost::shared_ptr<pong::Character>, const boost::shared_ptr<pong::User>&>::assign_to_own
FUNC c5c50 9e 0 boost::_bi::storage3<boost::arg<1>, boost::_bi::value<boost::function<bool(const boost::shared_ptr<pong::Character>&)> >, boost::_bi::value<boost::function<boost::shared_ptr<pong::Character>(const boost::shared_ptr<pong::User>&)> > >::storage3
FUNC c5cee 9d 0 boost::function1<bool, const boost::shared_ptr<pong::User>&>::assign_to<boost::_bi::bind_t<bool, bool (*)(const boost::shared_ptr<pong::User>&, const boost::function<bool(const boost::shared_ptr<pong::Character>&)>&, const boost::function<boost::shared_ptr<pong::Character>(const boost::shared_ptr<pong::User>&)>&), boost::_bi::list3<boost::arg<1>, boost::_bi::value<boost::function<bool(const boost::shared_ptr<pong::Character>&)> >, boost::_bi::value<boost::function<boost::shared_ptr<pong::Character>(const boost::shared_ptr<pong::User>&)> > > > >
FUNC c5d8c 6e 0 boost::function1<long int, const boost::shared_ptr<pong::User>&>::assign_to<boost::_bi::bind_t<long int, boost::_mfi::cmf0<long int, pong::User>, boost::_bi::list1<boost::arg<1> > > >
FUNC c5dfa 15 0 boost::function1<long int, const boost::shared_ptr<pong::User>&>::get_vtable
FUNC c5e10 37 0 boost::detail::function::basic_vtable1<long int, const boost::shared_ptr<pong::User>&>::clear
FUNC c5e48 8e 0 boost::function1<long int, const boost::shared_ptr<pong::User>&>::assign_to_own
FUNC c5ed6 7e 0 boost::_bi::storage4<boost::arg<1>, boost::_bi::value<long int>, boost::_bi::value<boost::function<long int(const boost::shared_ptr<pong::User>&)> >, boost::_bi::value<pong::MatchCondition> >::storage4
FUNC c5f54 9d 0 boost::function1<bool, const boost::shared_ptr<pong::User>&>::assign_to<boost::_bi::bind_t<bool, bool (*)(const boost::shared_ptr<pong::User>&, long int const&, const boost::function<long int(const boost::shared_ptr<pong::User>&)>&, pong::MatchCondition), boost::_bi::list4<boost::arg<1>, boost::_bi::value<long int>, boost::_bi::value<boost::function<long int(const boost::shared_ptr<pong::User>&)> >, boost::_bi::value<pong::MatchCondition> > > >
FUNC c5ff2 88 0 boost::detail::shared_count::shared_count<pong::User::OpaqueData>
FUNC c607a e 0 std::move<pong::Character::OpaqueData*&>
FUNC c6088 51 0 std::swap<pong::Character::OpaqueData*>
FUNC c60da 88 0 boost::detail::shared_count::shared_count<pong::User>
FUNC c6162 1c 0 __gnu_cxx::__normal_iterator<const std::pair<boost::uuids::uuid, boost::shared_ptr<pong::User> >*, std::vector<std::pair<boost::uuids::uuid, boost::shared_ptr<pong::User> >, std::allocator<std::pair<boost::uuids::uuid, boost::shared_ptr<pong::User> > > > >::__normal_iterator
FUNC c617e e 0 __gnu_cxx::__normal_iterator<const std::pair<boost::uuids::uuid, boost::shared_ptr<pong::User> >*, std::vector<std::pair<boost::uuids::uuid, boost::shared_ptr<pong::User> >, std::allocator<std::pair<boost::uuids::uuid, boost::shared_ptr<pong::User> > > > >::base
FUNC c618c 1a 0 std::allocator_traits<std::allocator<std::pair<boost::uuids::uuid, boost::shared_ptr<pong::User> > > >::max_size
FUNC c61a6 e 0 std::_Vector_base<std::pair<boost::uuids::uuid, boost::shared_ptr<pong::User> >, std::allocator<std::pair<boost::uuids::uuid, boost::shared_ptr<pong::User> > > >::_M_get_Tp_allocator
FUNC c61b4 19 0 std::move_iterator<std::pair<boost::uuids::uuid, boost::shared_ptr<pong::User> >*>::move_iterator
FUNC c61ce 38 0 std::_Vector_base<std::pair<boost::uuids::uuid, boost::shared_ptr<pong::User> >, std::allocator<std::pair<boost::uuids::uuid, boost::shared_ptr<pong::User> > > >::_M_allocate
FUNC c6206 31 0 std::__uninitialized_copy_a<std::move_iterator<std::pair<boost::uuids::uuid, boost::shared_ptr<pong::User> >*>, std::pair<boost::uuids::uuid, boost::shared_ptr<pong::User> >*, std::pair<boost::uuids::uuid, boost::shared_ptr<pong::User> > >
FUNC c6237 25 0 std::_Destroy<std::pair<boost::uuids::uuid, boost::shared_ptr<pong::User> >*>
FUNC c625c 22 0 __gnu_cxx::new_allocator<std::pair<boost::uuids::uuid, boost::shared_ptr<pong::User> > >::deallocate
FUNC c627e e 0 std::move<pong::User*&>
FUNC c628c 51 0 std::swap<pong::User*>
FUNC c62dd 38 0 std::allocator_traits<std::allocator<std::pair<boost::uuids::uuid, boost::shared_ptr<pong::User> > > >::construct<std::pair<boost::uuids::uuid, boost::shared_ptr<pong::User> >, std::pair<boost::uuids::uuid, boost::shared_ptr<pong::User> > >
FUNC c6316 1e9 0 std::vector<std::pair<boost::uuids::uuid, boost::shared_ptr<pong::User> >, std::allocator<std::pair<boost::uuids::uuid, boost::shared_ptr<pong::User> > > >::_M_emplace_back_aux<std::pair<boost::uuids::uuid, boost::shared_ptr<pong::User> > >
FUNC c6500 1c 0 __gnu_cxx::__normal_iterator<const std::pair<std::basic_string<char, std::char_traits<char>, std::allocator<char> >, boost::shared_ptr<pong::User> >*, std::vector<std::pair<std::basic_string<char, std::char_traits<char>, std::allocator<char> >, boost::shared_ptr<pong::User> >, std::allocator<std::pair<std::basic_string<char, std::char_traits<char>, std::allocator<char> >, boost::shared_ptr<pong::User> > > > >::__normal_iterator
FUNC c651c e 0 __gnu_cxx::__normal_iterator<const std::pair<std::basic_string<char, std::char_traits<char>, std::allocator<char> >, boost::shared_ptr<pong::User> >*, std::vector<std::pair<std::basic_string<char, std::char_traits<char>, std::allocator<char> >, boost::shared_ptr<pong::User> >, std::allocator<std::pair<std::basic_string<char, std::char_traits<char>, std::allocator<char> >, boost::shared_ptr<pong::User> > > > >::base
FUNC c652a 1a 0 std::allocator_traits<std::allocator<std::pair<std::basic_string<char, std::char_traits<char>, std::allocator<char> >, boost::shared_ptr<pong::User> > > >::max_size
FUNC c6544 e 0 std::_Vector_base<std::pair<std::basic_string<char, std::char_traits<char>, std::allocator<char> >, boost::shared_ptr<pong::User> >, std::allocator<std::pair<std::basic_string<char, std::char_traits<char>, std::allocator<char> >, boost::shared_ptr<pong::User> > > >::_M_get_Tp_allocator
FUNC c6552 19 0 std::move_iterator<std::pair<std::basic_string<char, std::char_traits<char>, std::allocator<char> >, boost::shared_ptr<pong::User> >*>::move_iterator
FUNC c656c 38 0 std::_Vector_base<std::pair<std::basic_string<char, std::char_traits<char>, std::allocator<char> >, boost::shared_ptr<pong::User> >, std::allocator<std::pair<std::basic_string<char, std::char_traits<char>, std::allocator<char> >, boost::shared_ptr<pong::User> > > >::_M_allocate
FUNC c65a4 31 0 std::__uninitialized_copy_a<std::move_iterator<std::pair<std::basic_string<char>, boost::shared_ptr<pong::User> >*>, std::pair<std::basic_string<char>, boost::shared_ptr<pong::User> >*, std::pair<std::basic_string<char>, boost::shared_ptr<pong::User> > >
FUNC c65d5 25 0 std::_Destroy<std::pair<std::basic_string<char>, boost::shared_ptr<pong::User> >*>
FUNC c65fa 22 0 __gnu_cxx::new_allocator<std::pair<std::basic_string<char, std::char_traits<char>, std::allocator<char> >, boost::shared_ptr<pong::User> > >::deallocate
FUNC c661c 38 0 std::allocator_traits<std::allocator<std::pair<std::basic_string<char, std::char_traits<char>, std::allocator<char> >, boost::shared_ptr<pong::User> > > >::construct<std::pair<std::basic_string<char>, boost::shared_ptr<pong::User> >, std::pair<std::basic_string<char, std::char_traits<char>, std::allocator<char> >, boost::shared_ptr<pong::User> > >
FUNC c6654 21b 0 std::vector<std::pair<std::basic_string<char, std::char_traits<char>, std::allocator<char> >, boost::shared_ptr<pong::User> >, std::allocator<std::pair<std::basic_string<char, std::char_traits<char>, std::allocator<char> >, boost::shared_ptr<pong::User> > > >::_M_emplace_back_aux<std::pair<std::basic_string<char, std::char_traits<char>, std::allocator<char> >, boost::shared_ptr<pong::User> > >
FUNC c686f 38 0 std::allocator_traits<std::allocator<boost::shared_ptr<pong::User> > >::construct<boost::shared_ptr<pong::User>, boost::shared_ptr<pong::User> >
FUNC c68a8 1e9 0 std::vector<boost::shared_ptr<pong::User>, std::allocator<boost::shared_ptr<pong::User> > >::_M_emplace_back_aux<boost::shared_ptr<pong::User> >
FUNC c6a92 2a 0 boost::io::basic_ios_fill_saver<char, std::char_traits<char> >::restore
FUNC c6abc 3d 0 std::_Vector_base<boost::shared_ptr<const fun::AttributeModel>, std::allocator<boost::shared_ptr<const fun::AttributeModel> > >::_Vector_impl::_Vector_impl
FUNC c6afa 1a 0 std::allocator<boost::shared_ptr<const fun::AttributeModel> >::~allocator
FUNC c6b14 34 0 std::_Vector_base<boost::shared_ptr<const fun::AttributeModel>, std::allocator<boost::shared_ptr<const fun::AttributeModel> > >::_M_deallocate
FUNC c6b48 25 0 std::_Destroy<boost::shared_ptr<const fun::AttributeModel>*>
FUNC c6b6e 88 0 boost::detail::shared_count::shared_count<fun::AttributeModel>
FUNC c6bf6 38 0 std::allocator_traits<std::allocator<boost::shared_ptr<const fun::AttributeModel> > >::construct<boost::shared_ptr<const fun::AttributeModel>, boost::shared_ptr<const fun::AttributeModel> >
FUNC c6c2e 1e9 0 std::vector<boost::shared_ptr<const fun::AttributeModel>, std::allocator<boost::shared_ptr<const fun::AttributeModel> > >::_M_emplace_back_aux<boost::shared_ptr<const fun::AttributeModel> >
FUNC c6e18 88 0 boost::detail::shared_count::shared_count<fun::ObjectModel>
FUNC c6ea0 2b 0 std::max<long unsigned int>
FUNC c6ecc 88 0 boost::detail::shared_count::shared_count<boost::exception_detail::clone_impl<boost::exception_detail::bad_alloc_> >
FUNC c6f54 88 0 boost::detail::shared_count::shared_count<boost::exception_detail::clone_impl<boost::exception_detail::bad_exception_> >
FUNC c6fdc 7c 0 boost::exception_detail::error_info_injector<boost::bad_function_call>::error_info_injector
FUNC c7058 c9 0 boost::exception_detail::clone_impl<boost::exception_detail::error_info_injector<boost::bad_function_call> >::clone_impl
FUNC c7121 42 0 boost::variant<fun::AttributeValue::kNull, bool, long int, double, std::basic_string<char, std::char_traits<char>, std::allocator<char> >, boost::uuids::uuid, boost::detail::variant::void_, boost::detail::variant::void_, boost::detail::variant::void_, boost::detail::variant::void_, boost::detail::variant::void_, boost::detail::variant::void_, boost::detail::variant::void_, boost::detail::variant::void_, boost::detail::variant::void_, boost::detail::variant::void_, boost::detail::variant::void_, boost::detail::variant::void_, boost::detail::variant::void_, boost::detail::variant::void_>::internal_apply_visitor_impl<boost::detail::variant::destroyer, void*>
FUNC c7163 1a 0 std::allocator_traits<std::allocator<boost::uuids::uuid> >::_S_max_size<const std::allocator<boost::uuids::uuid> >
FUNC c717e 42 0 __gnu_cxx::new_allocator<boost::uuids::uuid>::allocate
FUNC c71c0 2d 0 std::uninitialized_copy<std::move_iterator<boost::uuids::uuid*>, boost::uuids::uuid*>
FUNC c71ed e 0 std::_Destroy_aux<true>::__destroy<boost::uuids::uuid*>
FUNC c71fb 38 0 std::allocator_traits<std::allocator<boost::uuids::uuid> >::_S_construct<boost::uuids::uuid, boost::uuids::uuid>
FUNC c7234 c9 0 std::vector<boost::uuids::uuid, std::allocator<boost::uuids::uuid> >::_M_check_len
FUNC c72fd 4e 0 std::__uninitialized_move_if_noexcept_a<boost::uuids::uuid*, boost::uuids::uuid*, std::allocator<boost::uuids::uuid> >
FUNC c734b 25 0 std::allocator_traits<std::allocator<boost::uuids::uuid> >::destroy<boost::uuids::uuid>
FUNC c7370 58 0 boost::detail::function::functor_manager<boost::_bi::bind_t<const boost::uuids::uuid&, boost::_mfi::cmf0<const boost::uuids::uuid&, pong::Character>, boost::_bi::list1<boost::arg<1> > > >::manage
FUNC c73c8 34 0 boost::detail::function::function_obj_invoker1<boost::_bi::bind_t<const boost::uuids::uuid&, boost::_mfi::cmf0<const boost::uuids::uuid&, pong::Character>, boost::_bi::list1<boost::arg<1> > >, boost::uuids::uuid, const boost::shared_ptr<pong::Character>&>::invoke
FUNC c73fc 43 0 boost::detail::function::basic_vtable1<boost::uuids::uuid, const boost::shared_ptr<pong::Character>&>::assign_to<boost::_bi::bind_t<const boost::uuids::uuid&, boost::_mfi::cmf0<const boost::uuids::uuid&, pong::Character>, boost::_bi::list1<boost::arg<1> > > >
FUNC c7440 55 0 boost::_bi::storage3<boost::arg<1>, boost::_bi::value<boost::uuids::uuid>, boost::_bi::value<boost::function<boost::uuids::uuid(const boost::shared_ptr<pong::Character>&)> > >::storage3
FUNC c7495 58 0 boost::detail::function::functor_manager<boost::_bi::bind_t<bool, bool (*)(const boost::shared_ptr<pong::Character>&, const boost::uuids::uuid&, const boost::function<boost::uuids::uuid(const boost::shared_ptr<pong::Character>&)>&, pong::MatchCondition), boost::_bi::list4<boost::arg<1>, boost::_bi::value<boost::uuids::uuid>, boost::_bi::value<boost::function<boost::uuids::uuid(const boost::shared_ptr<pong::Character>&)> >, boost::_bi::value<pong::MatchCondition> > > >::manage
FUNC c74ed 30 0 boost::detail::function::function_obj_invoker1<boost::_bi::bind_t<bool, bool (*)(const boost::shared_ptr<pong::Character>&, const boost::uuids::uuid&, const boost::function<boost::uuids::uuid(const boost::shared_ptr<pong::Character>&)>&, pong::MatchCondition), boost::_bi::list4<boost::arg<1>, boost::_bi::value<boost::uuids::uuid>, boost::_bi::value<boost::function<boost::uuids::uuid(const boost::shared_ptr<pong::Character>&)> >, boost::_bi::value<pong::MatchCondition> > >, bool, const boost::shared_ptr<pong::Character>&>::invoke
FUNC c751e a4 0 boost::detail::function::basic_vtable1<bool, const boost::shared_ptr<pong::Character>&>::assign_to<boost::_bi::bind_t<bool, bool (*)(const boost::shared_ptr<pong::Character>&, const boost::uuids::uuid&, const boost::function<boost::uuids::uuid(const boost::shared_ptr<pong::Character>&)>&, pong::MatchCondition), boost::_bi::list4<boost::arg<1>, boost::_bi::value<boost::uuids::uuid>, boost::_bi::value<boost::function<boost::uuids::uuid(const boost::shared_ptr<pong::Character>&)> >, boost::_bi::value<pong::MatchCondition> > > >
FUNC c75c2 58 0 boost::detail::function::functor_manager<boost::_bi::bind_t<std::basic_string<char, std::char_traits<char>, std::allocator<char> >, boost::_mfi::cmf0<std::basic_string<char, std::char_traits<char>, std::allocator<char> >, pong::Character>, boost::_bi::list1<boost::arg<1> > > >::manage
FUNC c761a 39 0 boost::detail::function::function_obj_invoker1<boost::_bi::bind_t<std::basic_string<char, std::char_traits<char>, std::allocator<char> >, boost::_mfi::cmf0<std::basic_string<char, std::char_traits<char>, std::allocator<char> >, pong::Character>, boost::_bi::list1<boost::arg<1> > >, std::basic_string<char, std::char_traits<char>, std::allocator<char> >, const boost::shared_ptr<pong::Character>&>::invoke
FUNC c7654 43 0 boost::detail::function::basic_vtable1<std::basic_string<char, std::char_traits<char>, std::allocator<char> >, const boost::shared_ptr<pong::Character>&>::assign_to<boost::_bi::bind_t<std::basic_string<char>, boost::_mfi::cmf0<std::basic_string<char>, pong::Character>, boost::_bi::list1<boost::arg<1> > > >
FUNC c7698 9e 0 boost::_bi::storage3<boost::arg<1>, boost::_bi::value<std::basic_string<char, std::char_traits<char>, std::allocator<char> > >, boost::_bi::value<boost::function<std::basic_string<char, std::char_traits<char>, std::allocator<char> >(const boost::shared_ptr<pong::Character>&)> > >::storage3
FUNC c7736 58 0 boost::detail::function::functor_manager<boost::_bi::bind_t<bool, bool (*)(const boost::shared_ptr<pong::Character>&, const std::basic_string<char, std::char_traits<char>, std::allocator<char> >&, const boost::function<std::basic_string<char, std::char_traits<char>, std::allocator<char> >(const boost::shared_ptr<pong::Character>&)>&, pong::MatchCondition), boost::_bi::list4<boost::arg<1>, boost::_bi::value<std::basic_string<char, std::char_traits<char>, std::allocator<char> > >, boost::_bi::value<boost::function<std::basic_string<char, std::char_traits<char>, std::allocator<char> >(const boost::shared_ptr<pong::Character>&)> >, boost::_bi::value<pong::MatchCondition> > > >::manage
FUNC c778e 30 0 boost::detail::function::function_obj_invoker1<boost::_bi::bind_t<bool, bool (*)(const boost::shared_ptr<pong::Character>&, const std::basic_string<char, std::char_traits<char>, std::allocator<char> >&, const boost::function<std::basic_string<char, std::char_traits<char>, std::allocator<char> >(const boost::shared_ptr<pong::Character>&)>&, pong::MatchCondition), boost::_bi::list4<boost::arg<1>, boost::_bi::value<std::basic_string<char, std::char_traits<char>, std::allocator<char> > >, boost::_bi::value<boost::function<std::basic_string<char, std::char_traits<char>, std::allocator<char> >(const boost::shared_ptr<pong::Character>&)> >, boost::_bi::value<pong::MatchCondition> > >, bool, const boost::shared_ptr<pong::Character>&>::invoke
FUNC c77be 75 0 boost::detail::function::basic_vtable1<bool, const boost::shared_ptr<pong::Character>&>::assign_to<boost::_bi::bind_t<bool, bool (*)(const boost::shared_ptr<pong::Character>&, const std::basic_string<char>&, const boost::function<std::basic_string<char>(const boost::shared_ptr<pong::Character>&)>&, pong::MatchCondition), boost::_bi::list4<boost::arg<1>, boost::_bi::value<std::basic_string<char> >, boost::_bi::value<boost::function<std::basic_string<char>(const boost::shared_ptr<pong::Character>&)> >, boost::_bi::value<pong::MatchCondition> > > >
FUNC c7833 58 0 boost::detail::function::functor_manager<boost::_bi::bind_t<long int, boost::_mfi::cmf0<long int, pong::Character>, boost::_bi::list1<boost::arg<1> > > >::manage
FUNC c788b 2d 0 boost::detail::function::function_obj_invoker1<boost::_bi::bind_t<long int, boost::_mfi::cmf0<long int, pong::Character>, boost::_bi::list1<boost::arg<1> > >, long int, const boost::shared_ptr<pong::Character>&>::invoke
FUNC c78b8 43 0 boost::detail::function::basic_vtable1<long int, const boost::shared_ptr<pong::Character>&>::assign_to<boost::_bi::bind_t<long int, boost::_mfi::cmf0<long int, pong::Character>, boost::_bi::list1<boost::arg<1> > > >
FUNC c78fc 43 0 boost::_bi::storage3<boost::arg<1>, boost::_bi::value<long int>, boost::_bi::value<boost::function<long int(const boost::shared_ptr<pong::Character>&)> > >::storage3
FUNC c793f 58 0 boost::detail::function::functor_manager<boost::_bi::bind_t<bool, bool (*)(const boost::shared_ptr<pong::Character>&, long int const&, const boost::function<long int(const boost::shared_ptr<pong::Character>&)>&, pong::MatchCondition), boost::_bi::list4<boost::arg<1>, boost::_bi::value<long int>, boost::_bi::value<boost::function<long int(const boost::shared_ptr<pong::Character>&)> >, boost::_bi::value<pong::MatchCondition> > > >::manage
FUNC c7997 30 0 boost::detail::function::function_obj_invoker1<boost::_bi::bind_t<bool, bool (*)(const boost::shared_ptr<pong::Character>&, long int const&, const boost::function<long int(const boost::shared_ptr<pong::Character>&)>&, pong::MatchCondition), boost::_bi::list4<boost::arg<1>, boost::_bi::value<long int>, boost::_bi::value<boost::function<long int(const boost::shared_ptr<pong::Character>&)> >, boost::_bi::value<pong::MatchCondition> > >, bool, const boost::shared_ptr<pong::Character>&>::invoke
FUNC c79c8 75 0 boost::detail::function::basic_vtable1<bool, const boost::shared_ptr<pong::Character>&>::assign_to<boost::_bi::bind_t<bool, bool (*)(const boost::shared_ptr<pong::Character>&, long int const&, const boost::function<long int(const boost::shared_ptr<pong::Character>&)>&, pong::MatchCondition), boost::_bi::list4<boost::arg<1>, boost::_bi::value<long int>, boost::_bi::value<boost::function<long int(const boost::shared_ptr<pong::Character>&)> >, boost::_bi::value<pong::MatchCondition> > > >
FUNC c7a3e 3c 0 boost::detail::sp_counted_impl_p<pong::Character::OpaqueData>::sp_counted_impl_p
FUNC c7a7a 1a 0 boost::checked_delete<pong::Character::OpaqueData>
FUNC c7a94 1a 0 std::allocator<std::_Rb_tree_node<std::pair<const std::basic_string<char, std::char_traits<char>, std::allocator<char> >, boost::shared_ptr<fun::AttributeValue> > > >::allocator
FUNC c7aae 41 0 std::_Rb_tree<std::basic_string<char, std::char_traits<char>, std::allocator<char> >, std::pair<const std::basic_string<char, std::char_traits<char>, std::allocator<char> >, boost::shared_ptr<fun::AttributeValue> >, std::_Select1st<std::pair<const std::basic_string<char, std::char_traits<char>, std::allocator<char> >, boost::shared_ptr<fun::AttributeValue> > >, std::less<std::basic_string<char, std::char_traits<char>, std::allocator<char> > >, std::allocator<std::pair<const std::basic_string<char, std::char_traits<char>, std::allocator<char> >, boost::shared_ptr<fun::AttributeValue> > > >::_Rb_tree_impl<std::less<std::basic_string<char, std::char_traits<char>, std::allocator<char> > >, true>::_M_initialize
FUNC c7af0 e 0 std::_Rb_tree<std::basic_string<char, std::char_traits<char>, std::allocator<char> >, std::pair<const std::basic_string<char, std::char_traits<char>, std::allocator<char> >, boost::shared_ptr<fun::AttributeValue> >, std::_Select1st<std::pair<const std::basic_string<char, std::char_traits<char>, std::allocator<char> >, boost::shared_ptr<fun::AttributeValue> > >, std::less<std::basic_string<char, std::char_traits<char>, std::allocator<char> > >, std::allocator<std::pair<const std::basic_string<char, std::char_traits<char>, std::allocator<char> >, boost::shared_ptr<fun::AttributeValue> > > >::_M_get_Node_allocator
FUNC c7afe 2a 0 std::pair<const std::basic_string<char, std::char_traits<char>, std::allocator<char> >, boost::shared_ptr<fun::AttributeValue> >::~pair
FUNC c7b28 1e 0 std::_Rb_tree_node<std::pair<const std::basic_string<char, std::char_traits<char>, std::allocator<char> >, boost::shared_ptr<fun::AttributeValue> > >::~_Rb_tree_node
FUNC c7b46 1e 0 __gnu_cxx::new_allocator<std::_Rb_tree_node<std::pair<const std::basic_string<char, std::char_traits<char>, std::allocator<char> >, boost::shared_ptr<fun::AttributeValue> > > >::destroy<std::_Rb_tree_node<std::pair<const std::basic_string<char>, boost::shared_ptr<fun::AttributeValue> > > >
FUNC c7b64 2a 0 std::_Rb_tree<std::basic_string<char, std::char_traits<char>, std::allocator<char> >, std::pair<const std::basic_string<char, std::char_traits<char>, std::allocator<char> >, boost::shared_ptr<fun::AttributeValue> >, std::_Select1st<std::pair<const std::basic_string<char, std::char_traits<char>, std::allocator<char> >, boost::shared_ptr<fun::AttributeValue> > >, std::less<std::basic_string<char, std::char_traits<char>, std::allocator<char> > >, std::allocator<std::pair<const std::basic_string<char, std::char_traits<char>, std::allocator<char> >, boost::shared_ptr<fun::AttributeValue> > > >::_M_put_node
FUNC c7b8e 12 0 std::_Rb_tree<std::basic_string<char, std::char_traits<char>, std::allocator<char> >, std::pair<const std::basic_string<char, std::char_traits<char>, std::allocator<char> >, boost::shared_ptr<fun::AttributeValue> >, std::_Select1st<std::pair<const std::basic_string<char, std::char_traits<char>, std::allocator<char> >, boost::shared_ptr<fun::AttributeValue> > >, std::less<std::basic_string<char, std::char_traits<char>, std::allocator<char> > >, std::allocator<std::pair<const std::basic_string<char, std::char_traits<char>, std::allocator<char> >, boost::shared_ptr<fun::AttributeValue> > > >::_M_end
FUNC c7ba0 8d 0 std::_Rb_tree<std::basic_string<char, std::char_traits<char>, std::allocator<char> >, std::pair<const std::basic_string<char, std::char_traits<char>, std::allocator<char> >, boost::shared_ptr<fun::AttributeValue> >, std::_Select1st<std::pair<const std::basic_string<char, std::char_traits<char>, std::allocator<char> >, boost::shared_ptr<fun::AttributeValue> > >, std::less<std::basic_string<char, std::char_traits<char>, std::allocator<char> > >, std::allocator<std::pair<const std::basic_string<char, std::char_traits<char>, std::allocator<char> >, boost::shared_ptr<fun::AttributeValue> > > >::_M_lower_bound
FUNC c7c2e 24 0 std::_Rb_tree<std::basic_string<char, std::char_traits<char>, std::allocator<char> >, std::pair<const std::basic_string<char, std::char_traits<char>, std::allocator<char> >, boost::shared_ptr<fun::AttributeValue> >, std::_Select1st<std::pair<const std::basic_string<char, std::char_traits<char>, std::allocator<char> >, boost::shared_ptr<fun::AttributeValue> > >, std::less<std::basic_string<char, std::char_traits<char>, std::allocator<char> > >, std::allocator<std::pair<const std::basic_string<char, std::char_traits<char>, std::allocator<char> >, boost::shared_ptr<fun::AttributeValue> > > >::_M_get_node
FUNC c7c52 6b 0 std::allocator_traits<std::allocator<std::_Rb_tree_node<std::pair<const std::basic_string<char, std::char_traits<char>, std::allocator<char> >, boost::shared_ptr<fun::AttributeValue> > > > >::construct<std::_Rb_tree_node<std::pair<const std::basic_string<char>, boost::shared_ptr<fun::AttributeValue> > >, const std::piecewise_construct_t&, std::tuple<std::basic_string<char, std::char_traits<char>, std::allocator<char> >&&>, std::tuple<> >
FUNC c7cbe 28 0 std::_Rb_tree_const_iterator<std::pair<const std::basic_string<char, std::char_traits<char>, std::allocator<char> >, boost::shared_ptr<fun::AttributeValue> > >::_M_const_cast
FUNC c7ce6 12 0 std::_Rb_tree<std::basic_string<char, std::char_traits<char>, std::allocator<char> >, std::pair<const std::basic_string<char, std::char_traits<char>, std::allocator<char> >, boost::shared_ptr<fun::AttributeValue> >, std::_Select1st<std::pair<const std::basic_string<char, std::char_traits<char>, std::allocator<char> >, boost::shared_ptr<fun::AttributeValue> > >, std::less<std::basic_string<char, std::char_traits<char>, std::allocator<char> > >, std::allocator<std::pair<const std::basic_string<char, std::char_traits<char>, std::allocator<char> >, boost::shared_ptr<fun::AttributeValue> > > >::_M_rightmost
FUNC c7cf8 2c 0 std::_Rb_tree<std::basic_string<char, std::char_traits<char>, std::allocator<char> >, std::pair<const std::basic_string<char, std::char_traits<char>, std::allocator<char> >, boost::shared_ptr<fun::AttributeValue> >, std::_Select1st<std::pair<const std::basic_string<char, std::char_traits<char>, std::allocator<char> >, boost::shared_ptr<fun::AttributeValue> > >, std::less<std::basic_string<char, std::char_traits<char>, std::allocator<char> > >, std::allocator<std::pair<const std::basic_string<char, std::char_traits<char>, std::allocator<char> >, boost::shared_ptr<fun::AttributeValue> > > >::_S_key
FUNC c7d24 12 0 std::_Rb_tree<std::basic_string<char, std::char_traits<char>, std::allocator<char> >, std::pair<const std::basic_string<char, std::char_traits<char>, std::allocator<char> >, boost::shared_ptr<fun::AttributeValue> >, std::_Select1st<std::pair<const std::basic_string<char, std::char_traits<char>, std::allocator<char> >, boost::shared_ptr<fun::AttributeValue> > >, std::less<std::basic_string<char, std::char_traits<char>, std::allocator<char> > >, std::allocator<std::pair<const std::basic_string<char, std::char_traits<char>, std::allocator<char> >, boost::shared_ptr<fun::AttributeValue> > > >::size
FUNC c7d36 e 0 std::forward<std::_Rb_tree_node<std::pair<const std::basic_string<char>, boost::shared_ptr<fun::AttributeValue> > >*&>
FUNC c7d44 43 0 std::pair<std::_Rb_tree_node_base*, std::_Rb_tree_node_base*>::pair<std::_Rb_tree_node<std::pair<const std::basic_string<char>, boost::shared_ptr<fun::AttributeValue> > >*&, std::_Rb_tree_node<std::pair<const std::basic_string<char>, boost::shared_ptr<fun::AttributeValue> > >*&, void>
FUNC c7d88 16d 0 std::_Rb_tree<std::basic_string<char, std::char_traits<char>, std::allocator<char> >, std::pair<const std::basic_string<char, std::char_traits<char>, std::allocator<char> >, boost::shared_ptr<fun::AttributeValue> >, std::_Select1st<std::pair<const std::basic_string<char, std::char_traits<char>, std::allocator<char> >, boost::shared_ptr<fun::AttributeValue> > >, std::less<std::basic_string<char, std::char_traits<char>, std::allocator<char> > >, std::allocator<std::pair<const std::basic_string<char, std::char_traits<char>, std::allocator<char> >, boost::shared_ptr<fun::AttributeValue> > > >::_M_get_insert_unique_pos
FUNC c7ef6 12 0 std::_Rb_tree<std::basic_string<char, std::char_traits<char>, std::allocator<char> >, std::pair<const std::basic_string<char, std::char_traits<char>, std::allocator<char> >, boost::shared_ptr<fun::AttributeValue> >, std::_Select1st<std::pair<const std::basic_string<char, std::char_traits<char>, std::allocator<char> >, boost::shared_ptr<fun::AttributeValue> > >, std::less<std::basic_string<char, std::char_traits<char>, std::allocator<char> > >, std::allocator<std::pair<const std::basic_string<char, std::char_traits<char>, std::allocator<char> >, boost::shared_ptr<fun::AttributeValue> > > >::_M_leftmost
FUNC c7f08 28 0 std::_Rb_tree_iterator<std::pair<const std::basic_string<char, std::char_traits<char>, std::allocator<char> >, boost::shared_ptr<fun::AttributeValue> > >::operator--
FUNC c7f30 28 0 std::_Rb_tree_iterator<std::pair<const std::basic_string<char, std::char_traits<char>, std::allocator<char> >, boost::shared_ptr<fun::AttributeValue> > >::operator++
FUNC c7f58 12 0 std::_Rb_tree<std::basic_string<char, std::char_traits<char>, std::allocator<char> >, std::pair<const std::basic_string<char, std::char_traits<char>, std::allocator<char> >, boost::shared_ptr<fun::AttributeValue> >, std::_Select1st<std::pair<const std::basic_string<char, std::char_traits<char>, std::allocator<char> >, boost::shared_ptr<fun::AttributeValue> > >, std::less<std::basic_string<char, std::char_traits<char>, std::allocator<char> > >, std::allocator<std::pair<const std::basic_string<char, std::char_traits<char>, std::allocator<char> >, boost::shared_ptr<fun::AttributeValue> > > >::_S_value
FUNC c7f6a 12 0 std::_Select1st<std::pair<const std::basic_string<char, std::char_traits<char>, std::allocator<char> >, boost::shared_ptr<fun::AttributeValue> > >::operator()
FUNC c7f7c 3c 0 boost::detail::sp_counted_impl_p<pong::Character>::sp_counted_impl_p
FUNC c7fb8 41 0 pong::Character::~Character
FUNC c7ffa 26 0 pong::Character::~Character
FUNC c8020 2c 0 boost::checked_delete<pong::Character>
FUNC c804c 1a 0 std::allocator<std::pair<boost::uuids::uuid, boost::shared_ptr<fun::Object> > >::allocator
FUNC c8066 a 0 __gnu_cxx::new_allocator<std::pair<boost::uuids::uuid, boost::shared_ptr<fun::Object> > >::~new_allocator
FUNC c8070 37 0 std::_Destroy_aux<false>::__destroy<std::pair<boost::uuids::uuid, boost::shared_ptr<fun::Object> >*>
FUNC c80a7 1a 0 std::allocator_traits<std::allocator<std::pair<boost::uuids::uuid, boost::shared_ptr<fun::Object> > > >::_S_max_size<const std::allocator<std::pair<boost::uuids::uuid, boost::shared_ptr<fun::Object> > > >
FUNC c80c2 42 0 __gnu_cxx::new_allocator<std::pair<boost::uuids::uuid, boost::shared_ptr<fun::Object> > >::allocate
FUNC c8104 2d 0 std::uninitialized_copy<std::move_iterator<std::pair<boost::uuids::uuid, boost::shared_ptr<fun::Object> >*>, std::pair<boost::uuids::uuid, boost::shared_ptr<fun::Object> >*>
FUNC c8131 1a 0 std::allocator_traits<std::allocator<std::pair<boost::uuids::uuid, boost::shared_ptr<pong::Character> > > >::_S_max_size<const std::allocator<std::pair<boost::uuids::uuid, boost::shared_ptr<pong::Character> > > >
FUNC c814c 42 0 __gnu_cxx::new_allocator<std::pair<boost::uuids::uuid, boost::shared_ptr<pong::Character> > >::allocate
FUNC c818e 2d 0 std::uninitialized_copy<std::move_iterator<std::pair<boost::uuids::uuid, boost::shared_ptr<pong::Character> >*>, std::pair<boost::uuids::uuid, boost::shared_ptr<pong::Character> >*>
FUNC c81bb 37 0 std::_Destroy_aux<false>::__destroy<std::pair<boost::uuids::uuid, boost::shared_ptr<pong::Character> >*>
FUNC c81f2 38 0 std::allocator_traits<std::allocator<std::pair<boost::uuids::uuid, boost::shared_ptr<pong::Character> > > >::_S_construct<std::pair<boost::uuids::uuid, boost::shared_ptr<pong::Character> >, std::pair<boost::uuids::uuid, boost::shared_ptr<pong::Character> > >
FUNC c822a c9 0 std::vector<std::pair<boost::uuids::uuid, boost::shared_ptr<pong::Character> >, std::allocator<std::pair<boost::uuids::uuid, boost::shared_ptr<pong::Character> > > >::_M_check_len
FUNC c82f3 4e 0 std::__uninitialized_move_if_noexcept_a<std::pair<boost::uuids::uuid, boost::shared_ptr<pong::Character> >*, std::pair<boost::uuids::uuid, boost::shared_ptr<pong::Character> >*, std::allocator<std::pair<boost::uuids::uuid, boost::shared_ptr<pong::Character> > > >
FUNC c8341 25 0 std::allocator_traits<std::allocator<std::pair<boost::uuids::uuid, boost::shared_ptr<pong::Character> > > >::destroy<std::pair<boost::uuids::uuid, boost::shared_ptr<pong::Character> > >
FUNC c8366 3c 0 boost::detail::sp_counted_impl_p<fun::AttributeValue>::sp_counted_impl_p
FUNC c83a2 2d 0 boost::checked_delete<fun::AttributeValue>
FUNC c83d0 1a 0 std::allocator<boost::shared_ptr<fun::AttributeValue> >::allocator
FUNC c83ea a 0 __gnu_cxx::new_allocator<boost::shared_ptr<fun::AttributeValue> >::~new_allocator
FUNC c83f4 37 0 std::_Destroy_aux<false>::__destroy<boost::shared_ptr<fun::AttributeValue>*>
FUNC c842b 1a 0 std::allocator_traits<std::allocator<boost::shared_ptr<fun::AttributeValue> > >::_S_max_size<const std::allocator<boost::shared_ptr<fun::AttributeValue> > >
FUNC c8446 42 0 __gnu_cxx::new_allocator<boost::shared_ptr<fun::AttributeValue> >::allocate
FUNC c8488 2d 0 std::uninitialized_copy<std::move_iterator<boost::shared_ptr<fun::AttributeValue>*>, boost::shared_ptr<fun::AttributeValue>*>
FUNC c84b5 38 0 std::allocator_traits<std::allocator<boost::shared_ptr<fun::AttributeValue> > >::_S_construct<boost::shared_ptr<fun::AttributeValue>, boost::shared_ptr<fun::AttributeValue> >
FUNC c84ee c9 0 std::vector<boost::shared_ptr<fun::AttributeValue>, std::allocator<boost::shared_ptr<fun::AttributeValue> > >::_M_check_len
FUNC c85b7 4e 0 std::__uninitialized_move_if_noexcept_a<boost::shared_ptr<fun::AttributeValue>*, boost::shared_ptr<fun::AttributeValue>*, std::allocator<boost::shared_ptr<fun::AttributeValue> > >
FUNC c8605 25 0 std::allocator_traits<std::allocator<boost::shared_ptr<fun::AttributeValue> > >::destroy<boost::shared_ptr<fun::AttributeValue> >
FUNC c862a 1a 0 std::allocator<std::pair<boost::shared_ptr<fun::AttributeValue>, boost::shared_ptr<fun::Object> > >::allocator
FUNC c8644 a 0 __gnu_cxx::new_allocator<std::pair<boost::shared_ptr<fun::AttributeValue>, boost::shared_ptr<fun::Object> > >::~new_allocator
FUNC c864e 22 0 __gnu_cxx::new_allocator<std::pair<boost::shared_ptr<fun::AttributeValue>, boost::shared_ptr<fun::Object> > >::deallocate
FUNC c8670 37 0 std::_Destroy_aux<false>::__destroy<std::pair<boost::shared_ptr<fun::AttributeValue>, boost::shared_ptr<fun::Object> >*>
FUNC c86a7 1a 0 std::allocator_traits<std::allocator<std::pair<std::basic_string<char, std::char_traits<char>, std::allocator<char> >, boost::shared_ptr<pong::Character> > > >::_S_max_size<const std::allocator<std::pair<std::basic_string<char>, boost::shared_ptr<pong::Character> > > >
FUNC c86c2 4b 0 __gnu_cxx::new_allocator<std::pair<std::basic_string<char, std::char_traits<char>, std::allocator<char> >, boost::shared_ptr<pong::Character> > >::allocate
FUNC c870d 2d 0 std::uninitialized_copy<std::move_iterator<std::pair<std::basic_string<char>, boost::shared_ptr<pong::Character> >*>, std::pair<std::basic_string<char>, boost::shared_ptr<pong::Character> >*>
FUNC c873a 37 0 std::_Destroy_aux<false>::__destroy<std::pair<std::basic_string<char>, boost::shared_ptr<pong::Character> >*>
FUNC c8771 38 0 std::allocator_traits<std::allocator<std::pair<std::basic_string<char, std::char_traits<char>, std::allocator<char> >, boost::shared_ptr<pong::Character> > > >::_S_construct<std::pair<std::basic_string<char>, boost::shared_ptr<pong::Character> >, std::pair<std::basic_string<char, std::char_traits<char>, std::allocator<char> >, boost::shared_ptr<pong::Character> > >
FUNC c87aa c9 0 std::vector<std::pair<std::basic_string<char, std::char_traits<char>, std::allocator<char> >, boost::shared_ptr<pong::Character> >, std::allocator<std::pair<std::basic_string<char, std::char_traits<char>, std::allocator<char> >, boost::shared_ptr<pong::Character> > > >::_M_check_len
FUNC c8873 4e 0 std::__uninitialized_move_if_noexcept_a<std::pair<std::basic_string<char>, boost::shared_ptr<pong::Character> >*, std::pair<std::basic_string<char>, boost::shared_ptr<pong::Character> >*, std::allocator<std::pair<std::basic_string<char>, boost::shared_ptr<pong::Character> > > >
FUNC c88c1 25 0 std::allocator_traits<std::allocator<std::pair<std::basic_string<char, std::char_traits<char>, std::allocator<char> >, boost::shared_ptr<pong::Character> > > >::destroy<std::pair<std::basic_string<char>, boost::shared_ptr<pong::Character> > >
FUNC c88e6 1a 0 std::allocator<boost::shared_ptr<fun::Object> >::allocator
FUNC c8900 a 0 __gnu_cxx::new_allocator<boost::shared_ptr<fun::Object> >::~new_allocator
FUNC c890a 22 0 __gnu_cxx::new_allocator<boost::shared_ptr<fun::Object> >::deallocate
FUNC c892c 37 0 std::_Destroy_aux<false>::__destroy<boost::shared_ptr<fun::Object>*>
FUNC c8963 38 0 std::allocator_traits<std::allocator<boost::shared_ptr<pong::Character> > >::_S_construct<boost::shared_ptr<pong::Character>, boost::shared_ptr<pong::Character> >
FUNC c899c c9 0 std::vector<boost::shared_ptr<pong::Character>, std::allocator<boost::shared_ptr<pong::Character> > >::_M_check_len
FUNC c8a66 38 0 std::_Vector_base<boost::shared_ptr<pong::Character>, std::allocator<boost::shared_ptr<pong::Character> > >::_M_allocate
FUNC c8a9e 26 0 std::vector<boost::shared_ptr<pong::Character>, std::allocator<boost::shared_ptr<pong::Character> > >::size
FUNC c8ac4 e 0 std::_Vector_base<boost::shared_ptr<pong::Character>, std::allocator<boost::shared_ptr<pong::Character> > >::_M_get_Tp_allocator
FUNC c8ad2 4e 0 std::__uninitialized_move_if_noexcept_a<boost::shared_ptr<pong::Character>*, boost::shared_ptr<pong::Character>*, std::allocator<boost::shared_ptr<pong::Character> > >
FUNC c8b20 25 0 std::allocator_traits<std::allocator<boost::shared_ptr<pong::Character> > >::destroy<boost::shared_ptr<pong::Character> >
FUNC c8b45 29 0 std::_Destroy<boost::shared_ptr<pong::Character>*, boost::shared_ptr<pong::Character> >
FUNC c8b6e 34 0 std::_Vector_base<boost::shared_ptr<pong::Character>, std::allocator<boost::shared_ptr<pong::Character> > >::_M_deallocate
FUNC c8ba2 58 0 boost::detail::function::functor_manager<boost::_bi::bind_t<const boost::uuids::uuid&, boost::_mfi::cmf0<const boost::uuids::uuid&, pong::User>, boost::_bi::list1<boost::arg<1> > > >::manage
FUNC c8bfa 34 0 boost::detail::function::function_obj_invoker1<boost::_bi::bind_t<const boost::uuids::uuid&, boost::_mfi::cmf0<const boost::uuids::uuid&, pong::User>, boost::_bi::list1<boost::arg<1> > >, boost::uuids::uuid, const boost::shared_ptr<pong::User>&>::invoke
FUNC c8c2e 43 0 boost::detail::function::basic_vtable1<boost::uuids::uuid, const boost::shared_ptr<pong::User>&>::assign_to<boost::_bi::bind_t<const boost::uuids::uuid&, boost::_mfi::cmf0<const boost::uuids::uuid&, pong::User>, boost::_bi::list1<boost::arg<1> > > >
FUNC c8c72 55 0 boost::_bi::storage3<boost::arg<1>, boost::_bi::value<boost::uuids::uuid>, boost::_bi::value<boost::function<boost::uuids::uuid(const boost::shared_ptr<pong::User>&)> > >::storage3
FUNC c8cc7 58 0 boost::detail::function::functor_manager<boost::_bi::bind_t<bool, bool (*)(const boost::shared_ptr<pong::User>&, const boost::uuids::uuid&, const boost::function<boost::uuids::uuid(const boost::shared_ptr<pong::User>&)>&, pong::MatchCondition), boost::_bi::list4<boost::arg<1>, boost::_bi::value<boost::uuids::uuid>, boost::_bi::value<boost::function<boost::uuids::uuid(const boost::shared_ptr<pong::User>&)> >, boost::_bi::value<pong::MatchCondition> > > >::manage
FUNC c8d1f 30 0 boost::detail::function::function_obj_invoker1<boost::_bi::bind_t<bool, bool (*)(const boost::shared_ptr<pong::User>&, const boost::uuids::uuid&, const boost::function<boost::uuids::uuid(const boost::shared_ptr<pong::User>&)>&, pong::MatchCondition), boost::_bi::list4<boost::arg<1>, boost::_bi::value<boost::uuids::uuid>, boost::_bi::value<boost::function<boost::uuids::uuid(const boost::shared_ptr<pong::User>&)> >, boost::_bi::value<pong::MatchCondition> > >, bool, const boost::shared_ptr<pong::User>&>::invoke
FUNC c8d50 a4 0 boost::detail::function::basic_vtable1<bool, const boost::shared_ptr<pong::User>&>::assign_to<boost::_bi::bind_t<bool, bool (*)(const boost::shared_ptr<pong::User>&, const boost::uuids::uuid&, const boost::function<boost::uuids::uuid(const boost::shared_ptr<pong::User>&)>&, pong::MatchCondition), boost::_bi::list4<boost::arg<1>, boost::_bi::value<boost::uuids::uuid>, boost::_bi::value<boost::function<boost::uuids::uuid(const boost::shared_ptr<pong::User>&)> >, boost::_bi::value<pong::MatchCondition> > > >
FUNC c8df4 58 0 boost::detail::function::functor_manager<boost::_bi::bind_t<std::basic_string<char, std::char_traits<char>, std::allocator<char> >, boost::_mfi::cmf0<std::basic_string<char, std::char_traits<char>, std::allocator<char> >, pong::User>, boost::_bi::list1<boost::arg<1> > > >::manage
FUNC c8e4c 39 0 boost::detail::function::function_obj_invoker1<boost::_bi::bind_t<std::basic_string<char, std::char_traits<char>, std::allocator<char> >, boost::_mfi::cmf0<std::basic_string<char, std::char_traits<char>, std::allocator<char> >, pong::User>, boost::_bi::list1<boost::arg<1> > >, std::basic_string<char, std::char_traits<char>, std::allocator<char> >, const boost::shared_ptr<pong::User>&>::invoke
FUNC c8e86 43 0 boost::detail::function::basic_vtable1<std::basic_string<char, std::char_traits<char>, std::allocator<char> >, const boost::shared_ptr<pong::User>&>::assign_to<boost::_bi::bind_t<std::basic_string<char>, boost::_mfi::cmf0<std::basic_string<char>, pong::User>, boost::_bi::list1<boost::arg<1> > > >
FUNC c8eca 9e 0 boost::_bi::storage3<boost::arg<1>, boost::_bi::value<std::basic_string<char, std::char_traits<char>, std::allocator<char> > >, boost::_bi::value<boost::function<std::basic_string<char, std::char_traits<char>, std::allocator<char> >(const boost::shared_ptr<pong::User>&)> > >::storage3
FUNC c8f68 58 0 boost::detail::function::functor_manager<boost::_bi::bind_t<bool, bool (*)(const boost::shared_ptr<pong::User>&, const std::basic_string<char, std::char_traits<char>, std::allocator<char> >&, const boost::function<std::basic_string<char, std::char_traits<char>, std::allocator<char> >(const boost::shared_ptr<pong::User>&)>&, pong::MatchCondition), boost::_bi::list4<boost::arg<1>, boost::_bi::value<std::basic_string<char, std::char_traits<char>, std::allocator<char> > >, boost::_bi::value<boost::function<std::basic_string<char, std::char_traits<char>, std::allocator<char> >(const boost::shared_ptr<pong::User>&)> >, boost::_bi::value<pong::MatchCondition> > > >::manage
FUNC c8fc0 30 0 boost::detail::function::function_obj_invoker1<boost::_bi::bind_t<bool, bool (*)(const boost::shared_ptr<pong::User>&, const std::basic_string<char, std::char_traits<char>, std::allocator<char> >&, const boost::function<std::basic_string<char, std::char_traits<char>, std::allocator<char> >(const boost::shared_ptr<pong::User>&)>&, pong::MatchCondition), boost::_bi::list4<boost::arg<1>, boost::_bi::value<std::basic_string<char, std::char_traits<char>, std::allocator<char> > >, boost::_bi::value<boost::function<std::basic_string<char, std::char_traits<char>, std::allocator<char> >(const boost::shared_ptr<pong::User>&)> >, boost::_bi::value<pong::MatchCondition> > >, bool, const boost::shared_ptr<pong::User>&>::invoke
FUNC c8ff0 75 0 boost::detail::function::basic_vtable1<bool, const boost::shared_ptr<pong::User>&>::assign_to<boost::_bi::bind_t<bool, bool (*)(const boost::shared_ptr<pong::User>&, const std::basic_string<char>&, const boost::function<std::basic_string<char>(const boost::shared_ptr<pong::User>&)>&, pong::MatchCondition), boost::_bi::list4<boost::arg<1>, boost::_bi::value<std::basic_string<char> >, boost::_bi::value<boost::function<std::basic_string<char>(const boost::shared_ptr<pong::User>&)> >, boost::_bi::value<pong::MatchCondition> > > >
FUNC c9065 58 0 boost::detail::function::functor_manager<boost::_bi::bind_t<boost::shared_ptr<pong::Character>, boost::_mfi::cmf0<boost::shared_ptr<pong::Character>, pong::User>, boost::_bi::list1<boost::arg<1> > > >::manage
FUNC c90bd 39 0 boost::detail::function::function_obj_invoker1<boost::_bi::bind_t<boost::shared_ptr<pong::Character>, boost::_mfi::cmf0<boost::shared_ptr<pong::Character>, pong::User>, boost::_bi::list1<boost::arg<1> > >, boost::shared_ptr<pong::Character>, const boost::shared_ptr<pong::User>&>::invoke
FUNC c90f6 43 0 boost::detail::function::basic_vtable1<boost::shared_ptr<pong::Character>, const boost::shared_ptr<pong::User>&>::assign_to<boost::_bi::bind_t<boost::shared_ptr<pong::Character>, boost::_mfi::cmf0<boost::shared_ptr<pong::Character>, pong::User>, boost::_bi::list1<boost::arg<1> > > >
FUNC c913a 34 0 boost::_bi::storage2<boost::arg<1>, boost::_bi::value<boost::function<bool(const boost::shared_ptr<pong::Character>&)> > >::storage2
FUNC c916e 58 0 boost::detail::function::functor_manager<boost::_bi::bind_t<bool, bool (*)(const boost::shared_ptr<pong::User>&, const boost::function<bool(const boost::shared_ptr<pong::Character>&)>&, const boost::function<boost::shared_ptr<pong::Character>(const boost::shared_ptr<pong::User>&)>&), boost::_bi::list3<boost::arg<1>, boost::_bi::value<boost::function<bool(const boost::shared_ptr<pong::Character>&)> >, boost::_bi::value<boost::function<boost::shared_ptr<pong::Character>(const boost::shared_ptr<pong::User>&)> > > > >::manage
FUNC c91c6 30 0 boost::detail::function::function_obj_invoker1<boost::_bi::bind_t<bool, bool (*)(const boost::shared_ptr<pong::User>&, const boost::function<bool(const boost::shared_ptr<pong::Character>&)>&, const boost::function<boost::shared_ptr<pong::Character>(const boost::shared_ptr<pong::User>&)>&), boost::_bi::list3<boost::arg<1>, boost::_bi::value<boost::function<bool(const boost::shared_ptr<pong::Character>&)> >, boost::_bi::value<boost::function<boost::shared_ptr<pong::Character>(const boost::shared_ptr<pong::User>&)> > > >, bool, const boost::shared_ptr<pong::User>&>::invoke
FUNC c91f6 75 0 boost::detail::function::basic_vtable1<bool, const boost::shared_ptr<pong::User>&>::assign_to<boost::_bi::bind_t<bool, bool (*)(const boost::shared_ptr<pong::User>&, const boost::function<bool(const boost::shared_ptr<pong::Character>&)>&, const boost::function<boost::shared_ptr<pong::Character>(const boost::shared_ptr<pong::User>&)>&), boost::_bi::list3<boost::arg<1>, boost::_bi::value<boost::function<bool(const boost::shared_ptr<pong::Character>&)> >, boost::_bi::value<boost::function<boost::shared_ptr<pong::Character>(const boost::shared_ptr<pong::User>&)> > > > >
FUNC c926b 58 0 boost::detail::function::functor_manager<boost::_bi::bind_t<long int, boost::_mfi::cmf0<long int, pong::User>, boost::_bi::list1<boost::arg<1> > > >::manage
FUNC c92c3 2d 0 boost::detail::function::function_obj_invoker1<boost::_bi::bind_t<long int, boost::_mfi::cmf0<long int, pong::User>, boost::_bi::list1<boost::arg<1> > >, long int, const boost::shared_ptr<pong::User>&>::invoke
FUNC c92f0 43 0 boost::detail::function::basic_vtable1<long int, const boost::shared_ptr<pong::User>&>::assign_to<boost::_bi::bind_t<long int, boost::_mfi::cmf0<long int, pong::User>, boost::_bi::list1<boost::arg<1> > > >
FUNC c9334 43 0 boost::_bi::storage3<boost::arg<1>, boost::_bi::value<long int>, boost::_bi::value<boost::function<long int(const boost::shared_ptr<pong::User>&)> > >::storage3
FUNC c9377 58 0 boost::detail::function::functor_manager<boost::_bi::bind_t<bool, bool (*)(const boost::shared_ptr<pong::User>&, long int const&, const boost::function<long int(const boost::shared_ptr<pong::User>&)>&, pong::MatchCondition), boost::_bi::list4<boost::arg<1>, boost::_bi::value<long int>, boost::_bi::value<boost::function<long int(const boost::shared_ptr<pong::User>&)> >, boost::_bi::value<pong::MatchCondition> > > >::manage
FUNC c93cf 30 0 boost::detail::function::function_obj_invoker1<boost::_bi::bind_t<bool, bool (*)(const boost::shared_ptr<pong::User>&, long int const&, const boost::function<long int(const boost::shared_ptr<pong::User>&)>&, pong::MatchCondition), boost::_bi::list4<boost::arg<1>, boost::_bi::value<long int>, boost::_bi::value<boost::function<long int(const boost::shared_ptr<pong::User>&)> >, boost::_bi::value<pong::MatchCondition> > >, bool, const boost::shared_ptr<pong::User>&>::invoke
FUNC c9400 75 0 boost::detail::function::basic_vtable1<bool, const boost::shared_ptr<pong::User>&>::assign_to<boost::_bi::bind_t<bool, bool (*)(const boost::shared_ptr<pong::User>&, long int const&, const boost::function<long int(const boost::shared_ptr<pong::User>&)>&, pong::MatchCondition), boost::_bi::list4<boost::arg<1>, boost::_bi::value<long int>, boost::_bi::value<boost::function<long int(const boost::shared_ptr<pong::User>&)> >, boost::_bi::value<pong::MatchCondition> > > >
FUNC c9476 3c 0 boost::detail::sp_counted_impl_p<pong::User::OpaqueData>::sp_counted_impl_p
FUNC c94b2 1a 0 pong::User::OpaqueData::~OpaqueData
FUNC c94cc 2d 0 boost::checked_delete<pong::User::OpaqueData>
FUNC c94fa 3c 0 boost::detail::sp_counted_impl_p<pong::User>::sp_counted_impl_p
FUNC c9536 41 0 pong::User::~User
FUNC c9578 26 0 pong::User::~User
FUNC c959e 2c 0 boost::checked_delete<pong::User>
FUNC c95ca 1a 0 std::allocator_traits<std::allocator<std::pair<boost::uuids::uuid, boost::shared_ptr<pong::User> > > >::_S_max_size<const std::allocator<std::pair<boost::uuids::uuid, boost::shared_ptr<pong::User> > > >
FUNC c95e4 42 0 __gnu_cxx::new_allocator<std::pair<boost::uuids::uuid, boost::shared_ptr<pong::User> > >::allocate
FUNC c9626 2d 0 std::uninitialized_copy<std::move_iterator<std::pair<boost::uuids::uuid, boost::shared_ptr<pong::User> >*>, std::pair<boost::uuids::uuid, boost::shared_ptr<pong::User> >*>
FUNC c9653 37 0 std::_Destroy_aux<false>::__destroy<std::pair<boost::uuids::uuid, boost::shared_ptr<pong::User> >*>
FUNC c968a 38 0 std::allocator_traits<std::allocator<std::pair<boost::uuids::uuid, boost::shared_ptr<pong::User> > > >::_S_construct<std::pair<boost::uuids::uuid, boost::shared_ptr<pong::User> >, std::pair<boost::uuids::uuid, boost::shared_ptr<pong::User> > >
FUNC c96c2 c9 0 std::vector<std::pair<boost::uuids::uuid, boost::shared_ptr<pong::User> >, std::allocator<std::pair<boost::uuids::uuid, boost::shared_ptr<pong::User> > > >::_M_check_len
FUNC c978b 4e 0 std::__uninitialized_move_if_noexcept_a<std::pair<boost::uuids::uuid, boost::shared_ptr<pong::User> >*, std::pair<boost::uuids::uuid, boost::shared_ptr<pong::User> >*, std::allocator<std::pair<boost::uuids::uuid, boost::shared_ptr<pong::User> > > >
FUNC c97d9 25 0 std::allocator_traits<std::allocator<std::pair<boost::uuids::uuid, boost::shared_ptr<pong::User> > > >::destroy<std::pair<boost::uuids::uuid, boost::shared_ptr<pong::User> > >
FUNC c97fe 1a 0 std::allocator_traits<std::allocator<std::pair<std::basic_string<char, std::char_traits<char>, std::allocator<char> >, boost::shared_ptr<pong::User> > > >::_S_max_size<const std::allocator<std::pair<std::basic_string<char>, boost::shared_ptr<pong::User> > > >
FUNC c9818 4b 0 __gnu_cxx::new_allocator<std::pair<std::basic_string<char, std::char_traits<char>, std::allocator<char> >, boost::shared_ptr<pong::User> > >::allocate
FUNC c9863 2d 0 std::uninitialized_copy<std::move_iterator<std::pair<std::basic_string<char>, boost::shared_ptr<pong::User> >*>, std::pair<std::basic_string<char>, boost::shared_ptr<pong::User> >*>
FUNC c9890 37 0 std::_Destroy_aux<false>::__destroy<std::pair<std::basic_string<char>, boost::shared_ptr<pong::User> >*>
FUNC c98c7 38 0 std::allocator_traits<std::allocator<std::pair<std::basic_string<char, std::char_traits<char>, std::allocator<char> >, boost::shared_ptr<pong::User> > > >::_S_construct<std::pair<std::basic_string<char>, boost::shared_ptr<pong::User> >, std::pair<std::basic_string<char, std::char_traits<char>, std::allocator<char> >, boost::shared_ptr<pong::User> > >
FUNC c9900 c9 0 std::vector<std::pair<std::basic_string<char, std::char_traits<char>, std::allocator<char> >, boost::shared_ptr<pong::User> >, std::allocator<std::pair<std::basic_string<char, std::char_traits<char>, std::allocator<char> >, boost::shared_ptr<pong::User> > > >::_M_check_len
FUNC c99c9 4e 0 std::__uninitialized_move_if_noexcept_a<std::pair<std::basic_string<char>, boost::shared_ptr<pong::User> >*, std::pair<std::basic_string<char>, boost::shared_ptr<pong::User> >*, std::allocator<std::pair<std::basic_string<char>, boost::shared_ptr<pong::User> > > >
FUNC c9a17 25 0 std::allocator_traits<std::allocator<std::pair<std::basic_string<char, std::char_traits<char>, std::allocator<char> >, boost::shared_ptr<pong::User> > > >::destroy<std::pair<std::basic_string<char>, boost::shared_ptr<pong::User> > >
FUNC c9a3c 38 0 std::allocator_traits<std::allocator<boost::shared_ptr<pong::User> > >::_S_construct<boost::shared_ptr<pong::User>, boost::shared_ptr<pong::User> >
FUNC c9a74 c9 0 std::vector<boost::shared_ptr<pong::User>, std::allocator<boost::shared_ptr<pong::User> > >::_M_check_len
FUNC c9b3e 38 0 std::_Vector_base<boost::shared_ptr<pong::User>, std::allocator<boost::shared_ptr<pong::User> > >::_M_allocate
FUNC c9b76 26 0 std::vector<boost::shared_ptr<pong::User>, std::allocator<boost::shared_ptr<pong::User> > >::size
FUNC c9b9c e 0 std::_Vector_base<boost::shared_ptr<pong::User>, std::allocator<boost::shared_ptr<pong::User> > >::_M_get_Tp_allocator
FUNC c9baa 4e 0 std::__uninitialized_move_if_noexcept_a<boost::shared_ptr<pong::User>*, boost::shared_ptr<pong::User>*, std::allocator<boost::shared_ptr<pong::User> > >
FUNC c9bf8 25 0 std::allocator_traits<std::allocator<boost::shared_ptr<pong::User> > >::destroy<boost::shared_ptr<pong::User> >
FUNC c9c1d 29 0 std::_Destroy<boost::shared_ptr<pong::User>*, boost::shared_ptr<pong::User> >
FUNC c9c46 34 0 std::_Vector_base<boost::shared_ptr<pong::User>, std::allocator<boost::shared_ptr<pong::User> > >::_M_deallocate
FUNC c9c7a 1a 0 std::allocator<boost::shared_ptr<const fun::AttributeModel> >::allocator
FUNC c9c94 a 0 __gnu_cxx::new_allocator<boost::shared_ptr<const fun::AttributeModel> >::~new_allocator
FUNC c9c9e 22 0 __gnu_cxx::new_allocator<boost::shared_ptr<const fun::AttributeModel> >::deallocate
FUNC c9cc0 37 0 std::_Destroy_aux<false>::__destroy<boost::shared_ptr<const fun::AttributeModel>*>
FUNC c9cf8 3c 0 boost::detail::sp_counted_impl_p<fun::AttributeModel>::sp_counted_impl_p
FUNC c9d34 2a 0 fun::AttributeModel::~AttributeModel
FUNC c9d5e 2d 0 boost::checked_delete<fun::AttributeModel>
FUNC c9d8b 38 0 std::allocator_traits<std::allocator<boost::shared_ptr<const fun::AttributeModel> > >::_S_construct<boost::shared_ptr<const fun::AttributeModel>, boost::shared_ptr<const fun::AttributeModel> >
FUNC c9dc4 c9 0 std::vector<boost::shared_ptr<const fun::AttributeModel>, std::allocator<boost::shared_ptr<const fun::AttributeModel> > >::_M_check_len
FUNC c9e8e 38 0 std::_Vector_base<boost::shared_ptr<const fun::AttributeModel>, std::allocator<boost::shared_ptr<const fun::AttributeModel> > >::_M_allocate
FUNC c9ec6 26 0 std::vector<boost::shared_ptr<const fun::AttributeModel>, std::allocator<boost::shared_ptr<const fun::AttributeModel> > >::size
FUNC c9eec 4e 0 std::__uninitialized_move_if_noexcept_a<boost::shared_ptr<const fun::AttributeModel>*, boost::shared_ptr<const fun::AttributeModel>*, std::allocator<boost::shared_ptr<const fun::AttributeModel> > >
FUNC c9f3a 25 0 std::allocator_traits<std::allocator<boost::shared_ptr<const fun::AttributeModel> > >::destroy<boost::shared_ptr<const fun::AttributeModel> >
FUNC c9f60 3c 0 boost::detail::sp_counted_impl_p<fun::ObjectModel>::sp_counted_impl_p
FUNC c9f9c 1a 0 std::map<std::basic_string<char, std::char_traits<char>, std::allocator<char> >, boost::shared_ptr<const fun::AttributeModel>, std::less<std::basic_string<char, std::char_traits<char>, std::allocator<char> > >, std::allocator<std::pair<const std::basic_string<char, std::char_traits<char>, std::allocator<char> >, boost::shared_ptr<const fun::AttributeModel> > > >::~map
FUNC c9fb6 3a 0 fun::ObjectModel::~ObjectModel
FUNC c9ff0 2d 0 boost::checked_delete<fun::ObjectModel>
FUNC ca01e 3c 0 boost::detail::sp_counted_impl_p<boost::exception_detail::clone_impl<boost::exception_detail::bad_alloc_> >::sp_counted_impl_p
FUNC ca05a 2c 0 boost::checked_delete<boost::exception_detail::clone_impl<boost::exception_detail::bad_alloc_> >
FUNC ca086 3c 0 boost::detail::sp_counted_impl_p<boost::exception_detail::clone_impl<boost::exception_detail::bad_exception_> >::sp_counted_impl_p
FUNC ca0c2 2c 0 boost::checked_delete<boost::exception_detail::clone_impl<boost::exception_detail::bad_exception_> >
FUNC ca0ee 3ac 0 boost::detail::variant::visitation_impl<mpl_::int_<0>, boost::detail::variant::visitation_impl_step<boost::mpl::l_iter<boost::mpl::l_item<mpl_::long_<6l>, fun::AttributeValue::kNull, boost::mpl::l_item<mpl_::long_<5l>, bool, boost::mpl::l_item<mpl_::long_<4l>, long int, boost::mpl::l_item<mpl_::long_<3l>, double, boost::mpl::l_item<mpl_::long_<2l>, std::basic_string<char>, boost::mpl::l_item<mpl_::long_<1l>, boost::uuids::uuid, boost::mpl::l_end> > > > > > >, boost::mpl::l_iter<boost::mpl::l_end> >, boost::detail::variant::destroyer, void*, boost::variant<fun::AttributeValue::kNull, bool, long int, double, std::basic_string<char>, boost::uuids::uuid>::has_fallback_type_>
FUNC ca49a 14 0 __gnu_cxx::new_allocator<boost::uuids::uuid>::max_size
FUNC ca4ae 2d 0 std::__uninitialized_copy<true>::__uninit_copy<std::move_iterator<boost::uuids::uuid*>, boost::uuids::uuid*>
FUNC ca4dc 52 0 __gnu_cxx::new_allocator<boost::uuids::uuid>::construct<boost::uuids::uuid, boost::uuids::uuid>
FUNC ca52e 25 0 std::allocator_traits<std::allocator<boost::uuids::uuid> >::_S_destroy<boost::uuids::uuid>
FUNC ca553 2f 0 boost::detail::function::functor_manager<boost::_bi::bind_t<const boost::uuids::uuid&, boost::_mfi::cmf0<const boost::uuids::uuid&, pong::Character>, boost::_bi::list1<boost::arg<1> > > >::manager
FUNC ca582 4b 0 boost::_bi::bind_t<const boost::uuids::uuid&, boost::_mfi::cmf0<const boost::uuids::uuid&, pong::Character>, boost::_bi::list1<boost::arg<1> > >::operator()<boost::shared_ptr<pong::Character> >
FUNC ca5ce 72 0 boost::detail::function::basic_vtable1<boost::uuids::uuid, const boost::shared_ptr<pong::Character>&>::assign_to<boost::_bi::bind_t<const boost::uuids::uuid&, boost::_mfi::cmf0<const boost::uuids::uuid&, pong::Character>, boost::_bi::list1<boost::arg<1> > > >
FUNC ca640 42 0 boost::_bi::storage2<boost::arg<1>, boost::_bi::value<boost::uuids::uuid> >::storage2
FUNC ca682 2f 0 boost::detail::function::functor_manager<boost::_bi::bind_t<bool, bool (*)(const boost::shared_ptr<pong::Character>&, const boost::uuids::uuid&, const boost::function<boost::uuids::uuid(const boost::shared_ptr<pong::Character>&)>&, pong::MatchCondition), boost::_bi::list4<boost::arg<1>, boost::_bi::value<boost::uuids::uuid>, boost::_bi::value<boost::function<boost::uuids::uuid(const boost::shared_ptr<pong::Character>&)> >, boost::_bi::value<pong::MatchCondition> > > >::manager
FUNC ca6b2 4b 0 boost::_bi::bind_t<bool, bool (*)(const boost::shared_ptr<pong::Character>&, const boost::uuids::uuid&, const boost::function<boost::uuids::uuid(const boost::shared_ptr<pong::Character>&)>&, pong::MatchCondition), boost::_bi::list4<boost::arg<1>, boost::_bi::value<boost::uuids::uuid>, boost::_bi::value<boost::function<boost::uuids::uuid(const boost::shared_ptr<pong::Character>&)> >, boost::_bi::value<pong::MatchCondition> > >::operator()<boost::shared_ptr<pong::Character> >
FUNC ca6fe cc 0 boost::detail::function::basic_vtable1<bool, const boost::shared_ptr<pong::Character>&>::assign_to<boost::_bi::bind_t<bool, bool (*)(const boost::shared_ptr<pong::Character>&, const boost::uuids::uuid&, const boost::function<boost::uuids::uuid(const boost::shared_ptr<pong::Character>&)>&, pong::MatchCondition), boost::_bi::list4<boost::arg<1>, boost::_bi::value<boost::uuids::uuid>, boost::_bi::value<boost::function<boost::uuids::uuid(const boost::shared_ptr<pong::Character>&)> >, boost::_bi::value<pong::MatchCondition> > > >
FUNC ca7ca 2f 0 boost::detail::function::functor_manager<boost::_bi::bind_t<std::basic_string<char, std::char_traits<char>, std::allocator<char> >, boost::_mfi::cmf0<std::basic_string<char, std::char_traits<char>, std::allocator<char> >, pong::Character>, boost::_bi::list1<boost::arg<1> > > >::manager
FUNC ca7fa 58 0 boost::_bi::bind_t<std::basic_string<char, std::char_traits<char>, std::allocator<char> >, boost::_mfi::cmf0<std::basic_string<char, std::char_traits<char>, std::allocator<char> >, pong::Character>, boost::_bi::list1<boost::arg<1> > >::operator()<boost::shared_ptr<pong::Character> >
FUNC ca852 72 0 boost::detail::function::basic_vtable1<std::basic_string<char, std::char_traits<char>, std::allocator<char> >, const boost::shared_ptr<pong::Character>&>::assign_to<boost::_bi::bind_t<std::basic_string<char>, boost::_mfi::cmf0<std::basic_string<char>, pong::Character>, boost::_bi::list1<boost::arg<1> > > >
FUNC ca8c4 34 0 boost::_bi::storage2<boost::arg<1>, boost::_bi::value<std::basic_string<char, std::char_traits<char>, std::allocator<char> > > >::storage2
FUNC ca8f8 2f 0 boost::detail::function::functor_manager<boost::_bi::bind_t<bool, bool (*)(const boost::shared_ptr<pong::Character>&, const std::basic_string<char, std::char_traits<char>, std::allocator<char> >&, const boost::function<std::basic_string<char, std::char_traits<char>, std::allocator<char> >(const boost::shared_ptr<pong::Character>&)>&, pong::MatchCondition), boost::_bi::list4<boost::arg<1>, boost::_bi::value<std::basic_string<char, std::char_traits<char>, std::allocator<char> > >, boost::_bi::value<boost::function<std::basic_string<char, std::char_traits<char>, std::allocator<char> >(const boost::shared_ptr<pong::Character>&)> >, boost::_bi::value<pong::MatchCondition> > > >::manager
FUNC ca928 4b 0 boost::_bi::bind_t<bool, bool (*)(const boost::shared_ptr<pong::Character>&, const std::basic_string<char, std::char_traits<char>, std::allocator<char> >&, const boost::function<std::basic_string<char, std::char_traits<char>, std::allocator<char> >(const boost::shared_ptr<pong::Character>&)>&, pong::MatchCondition), boost::_bi::list4<boost::arg<1>, boost::_bi::value<std::basic_string<char, std::char_traits<char>, std::allocator<char> > >, boost::_bi::value<boost::function<std::basic_string<char, std::char_traits<char>, std::allocator<char> >(const boost::shared_ptr<pong::Character>&)> >, boost::_bi::value<pong::MatchCondition> > >::operator()<boost::shared_ptr<pong::Character> >
FUNC ca974 9d 0 boost::detail::function::basic_vtable1<bool, const boost::shared_ptr<pong::Character>&>::assign_to<boost::_bi::bind_t<bool, bool (*)(const boost::shared_ptr<pong::Character>&, const std::basic_string<char>&, const boost::function<std::basic_string<char>(const boost::shared_ptr<pong::Character>&)>&, pong::MatchCondition), boost::_bi::list4<boost::arg<1>, boost::_bi::value<std::basic_string<char> >, boost::_bi::value<boost::function<std::basic_string<char>(const boost::shared_ptr<pong::Character>&)> >, boost::_bi::value<pong::MatchCondition> > > >
FUNC caa11 2f 0 boost::detail::function::functor_manager<boost::_bi::bind_t<long int, boost::_mfi::cmf0<long int, pong::Character>, boost::_bi::list1<boost::arg<1> > > >::manager
FUNC caa40 4b 0 boost::_bi::bind_t<long int, boost::_mfi::cmf0<long int, pong::Character>, boost::_bi::list1<boost::arg<1> > >::operator()<boost::shared_ptr<pong::Character> >
FUNC caa8c 72 0 boost::detail::function::basic_vtable1<long int, const boost::shared_ptr<pong::Character>&>::assign_to<boost::_bi::bind_t<long int, boost::_mfi::cmf0<long int, pong::Character>, boost::_bi::list1<boost::arg<1> > > >
FUNC caafe 2c 0 boost::_bi::storage2<boost::arg<1>, boost::_bi::value<long int> >::storage2
FUNC cab2a 2f 0 boost::detail::function::functor_manager<boost::_bi::bind_t<bool, bool (*)(const boost::shared_ptr<pong::Character>&, long int const&, const boost::function<long int(const boost::shared_ptr<pong::Character>&)>&, pong::MatchCondition), boost::_bi::list4<boost::arg<1>, boost::_bi::value<long int>, boost::_bi::value<boost::function<long int(const boost::shared_ptr<pong::Character>&)> >, boost::_bi::value<pong::MatchCondition> > > >::manager
FUNC cab5a 4b 0 boost::_bi::bind_t<bool, bool (*)(const boost::shared_ptr<pong::Character>&, long int const&, const boost::function<long int(const boost::shared_ptr<pong::Character>&)>&, pong::MatchCondition), boost::_bi::list4<boost::arg<1>, boost::_bi::value<long int>, boost::_bi::value<boost::function<long int(const boost::shared_ptr<pong::Character>&)> >, boost::_bi::value<pong::MatchCondition> > >::operator()<boost::shared_ptr<pong::Character> >
FUNC caba6 9d 0 boost::detail::function::basic_vtable1<bool, const boost::shared_ptr<pong::Character>&>::assign_to<boost::_bi::bind_t<bool, bool (*)(const boost::shared_ptr<pong::Character>&, long int const&, const boost::function<long int(const boost::shared_ptr<pong::Character>&)>&, pong::MatchCondition), boost::_bi::list4<boost::arg<1>, boost::_bi::value<long int>, boost::_bi::value<boost::function<long int(const boost::shared_ptr<pong::Character>&)> >, boost::_bi::value<pong::MatchCondition> > > >
FUNC cac44 a 0 __gnu_cxx::new_allocator<std::_Rb_tree_node<std::pair<const std::basic_string<char, std::char_traits<char>, std::allocator<char> >, boost::shared_ptr<fun::AttributeValue> > > >::new_allocator
FUNC cac4e 22 0 __gnu_cxx::new_allocator<std::_Rb_tree_node<std::pair<const std::basic_string<char, std::char_traits<char>, std::allocator<char> >, boost::shared_ptr<fun::AttributeValue> > > >::deallocate
FUNC cac70 50 0 __gnu_cxx::new_allocator<std::_Rb_tree_node<std::pair<const std::basic_string<char, std::char_traits<char>, std::allocator<char> >, boost::shared_ptr<fun::AttributeValue> > > >::allocate
FUNC cacc0 6b 0 std::allocator_traits<std::allocator<std::_Rb_tree_node<std::pair<const std::basic_string<char, std::char_traits<char>, std::allocator<char> >, boost::shared_ptr<fun::AttributeValue> > > > >::_S_construct<std::_Rb_tree_node<std::pair<const std::basic_string<char>, boost::shared_ptr<fun::AttributeValue> > >, const std::piecewise_construct_t&, std::tuple<std::basic_string<char, std::char_traits<char>, std::allocator<char> >&&>, std::tuple<> >
FUNC cad2b 12 0 std::_Rb_tree<std::basic_string<char, std::char_traits<char>, std::allocator<char> >, std::pair<const std::basic_string<char, std::char_traits<char>, std::allocator<char> >, boost::shared_ptr<fun::AttributeValue> >, std::_Select1st<std::pair<const std::basic_string<char, std::char_traits<char>, std::allocator<char> >, boost::shared_ptr<fun::AttributeValue> > >, std::less<std::basic_string<char, std::char_traits<char>, std::allocator<char> > >, std::allocator<std::pair<const std::basic_string<char, std::char_traits<char>, std::allocator<char> >, boost::shared_ptr<fun::AttributeValue> > > >::_S_value
FUNC cad3e 29 0 std::_Rb_tree<std::basic_string<char, std::char_traits<char>, std::allocator<char> >, std::pair<const std::basic_string<char, std::char_traits<char>, std::allocator<char> >, boost::shared_ptr<fun::AttributeValue> >, std::_Select1st<std::pair<const std::basic_string<char, std::char_traits<char>, std::allocator<char> >, boost::shared_ptr<fun::AttributeValue> > >, std::less<std::basic_string<char, std::char_traits<char>, std::allocator<char> > >, std::allocator<std::pair<const std::basic_string<char, std::char_traits<char>, std::allocator<char> >, boost::shared_ptr<fun::AttributeValue> > > >::begin
FUNC cad68 a 0 __gnu_cxx::new_allocator<std::pair<boost::uuids::uuid, boost::shared_ptr<fun::Object> > >::new_allocator
FUNC cad72 e 0 std::__addressof<std::pair<boost::uuids::uuid, boost::shared_ptr<fun::Object> > >
FUNC cad80 1e 0 std::pair<boost::uuids::uuid, boost::shared_ptr<fun::Object> >::~pair
FUNC cad9e 1a 0 std::_Destroy<std::pair<boost::uuids::uuid, boost::shared_ptr<fun::Object> > >
FUNC cadb8 14 0 __gnu_cxx::new_allocator<std::pair<boost::uuids::uuid, boost::shared_ptr<fun::Object> > >::max_size
FUNC cadcc ad 0 std::__uninitialized_copy<false>::__uninit_copy<std::move_iterator<std::pair<boost::uuids::uuid, boost::shared_ptr<fun::Object> >*>, std::pair<boost::uuids::uuid, boost::shared_ptr<fun::Object> >*>
FUNC cae7a 14 0 __gnu_cxx::new_allocator<std::pair<boost::uuids::uuid, boost::shared_ptr<pong::Character> > >::max_size
FUNC cae8e ad 0 std::__uninitialized_copy<false>::__uninit_copy<std::move_iterator<std::pair<boost::uuids::uuid, boost::shared_ptr<pong::Character> >*>, std::pair<boost::uuids::uuid, boost::shared_ptr<pong::Character> >*>
FUNC caf3b e 0 std::__addressof<std::pair<boost::uuids::uuid, boost::shared_ptr<pong::Character> > >
FUNC caf49 1a 0 std::_Destroy<std::pair<boost::uuids::uuid, boost::shared_ptr<pong::Character> > >
FUNC caf64 4c 0 __gnu_cxx::new_allocator<std::pair<boost::uuids::uuid, boost::shared_ptr<pong::Character> > >::construct<std::pair<boost::uuids::uuid, boost::shared_ptr<pong::Character> >, std::pair<boost::uuids::uuid, boost::shared_ptr<pong::Character> > >
FUNC cafb0 25 0 std::allocator_traits<std::allocator<std::pair<boost::uuids::uuid, boost::shared_ptr<pong::Character> > > >::_S_destroy<std::pair<boost::uuids::uuid, boost::shared_ptr<pong::Character> > >
FUNC cafd6 a 0 __gnu_cxx::new_allocator<boost::shared_ptr<fun::AttributeValue> >::new_allocator
FUNC cafe0 e 0 std::__addressof<boost::shared_ptr<fun::AttributeValue> >
FUNC cafee 1a 0 std::_Destroy<boost::shared_ptr<fun::AttributeValue> >
FUNC cb008 14 0 __gnu_cxx::new_allocator<boost::shared_ptr<fun::AttributeValue> >::max_size
FUNC cb01c ad 0 std::__uninitialized_copy<false>::__uninit_copy<std::move_iterator<boost::shared_ptr<fun::AttributeValue>*>, boost::shared_ptr<fun::AttributeValue>*>
FUNC cb0ca 4c 0 __gnu_cxx::new_allocator<boost::shared_ptr<fun::AttributeValue> >::construct<boost::shared_ptr<fun::AttributeValue>, boost::shared_ptr<fun::AttributeValue> >
FUNC cb116 25 0 std::allocator_traits<std::allocator<boost::shared_ptr<fun::AttributeValue> > >::_S_destroy<boost::shared_ptr<fun::AttributeValue> >
FUNC cb13c a 0 __gnu_cxx::new_allocator<std::pair<boost::shared_ptr<fun::AttributeValue>, boost::shared_ptr<fun::Object> > >::new_allocator
FUNC cb146 e 0 std::__addressof<std::pair<boost::shared_ptr<fun::AttributeValue>, boost::shared_ptr<fun::Object> > >
FUNC cb154 2a 0 std::pair<boost::shared_ptr<fun::AttributeValue>, boost::shared_ptr<fun::Object> >::~pair
FUNC cb17e 1a 0 std::_Destroy<std::pair<boost::shared_ptr<fun::AttributeValue>, boost::shared_ptr<fun::Object> > >
FUNC cb198 14 0 __gnu_cxx::new_allocator<std::pair<std::basic_string<char, std::char_traits<char>, std::allocator<char> >, boost::shared_ptr<pong::Character> > >::max_size
FUNC cb1ac ad 0 std::__uninitialized_copy<false>::__uninit_copy<std::move_iterator<std::pair<std::basic_string<char>, boost::shared_ptr<pong::Character> >*>, std::pair<std::basic_string<char>, boost::shared_ptr<pong::Character> >*>
FUNC cb259 e 0 std::__addressof<std::pair<std::basic_string<char>, boost::shared_ptr<pong::Character> > >
FUNC cb267 1a 0 std::_Destroy<std::pair<std::basic_string<char>, boost::shared_ptr<pong::Character> > >
FUNC cb282 4c 0 __gnu_cxx::new_allocator<std::pair<std::basic_string<char, std::char_traits<char>, std::allocator<char> >, boost::shared_ptr<pong::Character> > >::construct<std::pair<std::basic_string<char>, boost::shared_ptr<pong::Character> >, std::pair<std::basic_string<char, std::char_traits<char>, std::allocator<char> >, boost::shared_ptr<pong::Character> > >
FUNC cb2ce 25 0 std::allocator_traits<std::allocator<std::pair<std::basic_string<char, std::char_traits<char>, std::allocator<char> >, boost::shared_ptr<pong::Character> > > >::_S_destroy<std::pair<std::basic_string<char>, boost::shared_ptr<pong::Character> > >
FUNC cb2f4 a 0 __gnu_cxx::new_allocator<boost::shared_ptr<fun::Object> >::new_allocator
FUNC cb2fe e 0 std::__addressof<boost::shared_ptr<fun::Object> >
FUNC cb30c 1a 0 std::_Destroy<boost::shared_ptr<fun::Object> >
FUNC cb326 4c 0 __gnu_cxx::new_allocator<boost::shared_ptr<pong::Character> >::construct<boost::shared_ptr<pong::Character>, boost::shared_ptr<pong::Character> >
FUNC cb372 22 0 std::vector<boost::shared_ptr<pong::Character>, std::allocator<boost::shared_ptr<pong::Character> > >::max_size
FUNC cb394 42 0 __gnu_cxx::new_allocator<boost::shared_ptr<pong::Character> >::allocate
FUNC cb3d6 25 0 std::__make_move_if_noexcept_iterator<boost::shared_ptr<pong::Character>*, std::move_iterator<boost::shared_ptr<pong::Character>*> >
FUNC cb3fb 31 0 std::__uninitialized_copy_a<std::move_iterator<boost::shared_ptr<pong::Character>*>, boost::shared_ptr<pong::Character>*, boost::shared_ptr<pong::Character> >
FUNC cb42c 25 0 std::allocator_traits<std::allocator<boost::shared_ptr<pong::Character> > >::_S_destroy<boost::shared_ptr<pong::Character> >
FUNC cb451 25 0 std::_Destroy<boost::shared_ptr<pong::Character>*>
FUNC cb476 22 0 __gnu_cxx::new_allocator<boost::shared_ptr<pong::Character> >::deallocate
FUNC cb498 2f 0 boost::detail::function::functor_manager<boost::_bi::bind_t<const boost::uuids::uuid&, boost::_mfi::cmf0<const boost::uuids::uuid&, pong::User>, boost::_bi::list1<boost::arg<1> > > >::manager
FUNC cb4c8 4b 0 boost::_bi::bind_t<const boost::uuids::uuid&, boost::_mfi::cmf0<const boost::uuids::uuid&, pong::User>, boost::_bi::list1<boost::arg<1> > >::operator()<boost::shared_ptr<pong::User> >
FUNC cb514 72 0 boost::detail::function::basic_vtable1<boost::uuids::uuid, const boost::shared_ptr<pong::User>&>::assign_to<boost::_bi::bind_t<const boost::uuids::uuid&, boost::_mfi::cmf0<const boost::uuids::uuid&, pong::User>, boost::_bi::list1<boost::arg<1> > > >
FUNC cb586 2f 0 boost::detail::function::functor_manager<boost::_bi::bind_t<bool, bool (*)(const boost::shared_ptr<pong::User>&, const boost::uuids::uuid&, const boost::function<boost::uuids::uuid(const boost::shared_ptr<pong::User>&)>&, pong::MatchCondition), boost::_bi::list4<boost::arg<1>, boost::_bi::value<boost::uuids::uuid>, boost::_bi::value<boost::function<boost::uuids::uuid(const boost::shared_ptr<pong::User>&)> >, boost::_bi::value<pong::MatchCondition> > > >::manager
FUNC cb5b6 4b 0 boost::_bi::bind_t<bool, bool (*)(const boost::shared_ptr<pong::User>&, const boost::uuids::uuid&, const boost::function<boost::uuids::uuid(const boost::shared_ptr<pong::User>&)>&, pong::MatchCondition), boost::_bi::list4<boost::arg<1>, boost::_bi::value<boost::uuids::uuid>, boost::_bi::value<boost::function<boost::uuids::uuid(const boost::shared_ptr<pong::User>&)> >, boost::_bi::value<pong::MatchCondition> > >::operator()<boost::shared_ptr<pong::User> >
FUNC cb602 cc 0 boost::detail::function::basic_vtable1<bool, const boost::shared_ptr<pong::User>&>::assign_to<boost::_bi::bind_t<bool, bool (*)(const boost::shared_ptr<pong::User>&, const boost::uuids::uuid&, const boost::function<boost::uuids::uuid(const boost::shared_ptr<pong::User>&)>&, pong::MatchCondition), boost::_bi::list4<boost::arg<1>, boost::_bi::value<boost::uuids::uuid>, boost::_bi::value<boost::function<boost::uuids::uuid(const boost::shared_ptr<pong::User>&)> >, boost::_bi::value<pong::MatchCondition> > > >
FUNC cb6ce 2f 0 boost::detail::function::functor_manager<boost::_bi::bind_t<std::basic_string<char, std::char_traits<char>, std::allocator<char> >, boost::_mfi::cmf0<std::basic_string<char, std::char_traits<char>, std::allocator<char> >, pong::User>, boost::_bi::list1<boost::arg<1> > > >::manager
FUNC cb6fe 58 0 boost::_bi::bind_t<std::basic_string<char, std::char_traits<char>, std::allocator<char> >, boost::_mfi::cmf0<std::basic_string<char, std::char_traits<char>, std::allocator<char> >, pong::User>, boost::_bi::list1<boost::arg<1> > >::operator()<boost::shared_ptr<pong::User> >
FUNC cb756 72 0 boost::detail::function::basic_vtable1<std::basic_string<char, std::char_traits<char>, std::allocator<char> >, const boost::shared_ptr<pong::User>&>::assign_to<boost::_bi::bind_t<std::basic_string<char>, boost::_mfi::cmf0<std::basic_string<char>, pong::User>, boost::_bi::list1<boost::arg<1> > > >
FUNC cb7c8 2f 0 boost::detail::function::functor_manager<boost::_bi::bind_t<bool, bool (*)(const boost::shared_ptr<pong::User>&, const std::basic_string<char, std::char_traits<char>, std::allocator<char> >&, const boost::function<std::basic_string<char, std::char_traits<char>, std::allocator<char> >(const boost::shared_ptr<pong::User>&)>&, pong::MatchCondition), boost::_bi::list4<boost::arg<1>, boost::_bi::value<std::basic_string<char, std::char_traits<char>, std::allocator<char> > >, boost::_bi::value<boost::function<std::basic_string<char, std::char_traits<char>, std::allocator<char> >(const boost::shared_ptr<pong::User>&)> >, boost::_bi::value<pong::MatchCondition> > > >::manager
FUNC cb7f8 4b 0 boost::_bi::bind_t<bool, bool (*)(const boost::shared_ptr<pong::User>&, const std::basic_string<char, std::char_traits<char>, std::allocator<char> >&, const boost::function<std::basic_string<char, std::char_traits<char>, std::allocator<char> >(const boost::shared_ptr<pong::User>&)>&, pong::MatchCondition), boost::_bi::list4<boost::arg<1>, boost::_bi::value<std::basic_string<char, std::char_traits<char>, std::allocator<char> > >, boost::_bi::value<boost::function<std::basic_string<char, std::char_traits<char>, std::allocator<char> >(const boost::shared_ptr<pong::User>&)> >, boost::_bi::value<pong::MatchCondition> > >::operator()<boost::shared_ptr<pong::User> >
FUNC cb844 9d 0 boost::detail::function::basic_vtable1<bool, const boost::shared_ptr<pong::User>&>::assign_to<boost::_bi::bind_t<bool, bool (*)(const boost::shared_ptr<pong::User>&, const std::basic_string<char>&, const boost::function<std::basic_string<char>(const boost::shared_ptr<pong::User>&)>&, pong::MatchCondition), boost::_bi::list4<boost::arg<1>, boost::_bi::value<std::basic_string<char> >, boost::_bi::value<boost::function<std::basic_string<char>(const boost::shared_ptr<pong::User>&)> >, boost::_bi::value<pong::MatchCondition> > > >
FUNC cb8e1 2f 0 boost::detail::function::functor_manager<boost::_bi::bind_t<boost::shared_ptr<pong::Character>, boost::_mfi::cmf0<boost::shared_ptr<pong::Character>, pong::User>, boost::_bi::list1<boost::arg<1> > > >::manager
FUNC cb910 58 0 boost::_bi::bind_t<boost::shared_ptr<pong::Character>, boost::_mfi::cmf0<boost::shared_ptr<pong::Character>, pong::User>, boost::_bi::list1<boost::arg<1> > >::operator()<boost::shared_ptr<pong::User> >
FUNC cb968 72 0 boost::detail::function::basic_vtable1<boost::shared_ptr<pong::Character>, const boost::shared_ptr<pong::User>&>::assign_to<boost::_bi::bind_t<boost::shared_ptr<pong::Character>, boost::_mfi::cmf0<boost::shared_ptr<pong::Character>, pong::User>, boost::_bi::list1<boost::arg<1> > > >
FUNC cb9da 2f 0 boost::detail::function::functor_manager<boost::_bi::bind_t<bool, bool (*)(const boost::shared_ptr<pong::User>&, const boost::function<bool(const boost::shared_ptr<pong::Character>&)>&, const boost::function<boost::shared_ptr<pong::Character>(const boost::shared_ptr<pong::User>&)>&), boost::_bi::list3<boost::arg<1>, boost::_bi::value<boost::function<bool(const boost::shared_ptr<pong::Character>&)> >, boost::_bi::value<boost::function<boost::shared_ptr<pong::Character>(const boost::shared_ptr<pong::User>&)> > > > >::manager
FUNC cba0a 4b 0 boost::_bi::bind_t<bool, bool (*)(const boost::shared_ptr<pong::User>&, const boost::function<bool(const boost::shared_ptr<pong::Character>&)>&, const boost::function<boost::shared_ptr<pong::Character>(const boost::shared_ptr<pong::User>&)>&), boost::_bi::list3<boost::arg<1>, boost::_bi::value<boost::function<bool(const boost::shared_ptr<pong::Character>&)> >, boost::_bi::value<boost::function<boost::shared_ptr<pong::Character>(const boost::shared_ptr<pong::User>&)> > > >::operator()<boost::shared_ptr<pong::User> >
FUNC cba56 9d 0 boost::detail::function::basic_vtable1<bool, const boost::shared_ptr<pong::User>&>::assign_to<boost::_bi::bind_t<bool, bool (*)(const boost::shared_ptr<pong::User>&, const boost::function<bool(const boost::shared_ptr<pong::Character>&)>&, const boost::function<boost::shared_ptr<pong::Character>(const boost::shared_ptr<pong::User>&)>&), boost::_bi::list3<boost::arg<1>, boost::_bi::value<boost::function<bool(const boost::shared_ptr<pong::Character>&)> >, boost::_bi::value<boost::function<boost::shared_ptr<pong::Character>(const boost::shared_ptr<pong::User>&)> > > > >
FUNC cbaf3 2f 0 boost::detail::function::functor_manager<boost::_bi::bind_t<long int, boost::_mfi::cmf0<long int, pong::User>, boost::_bi::list1<boost::arg<1> > > >::manager
FUNC cbb22 4b 0 boost::_bi::bind_t<long int, boost::_mfi::cmf0<long int, pong::User>, boost::_bi::list1<boost::arg<1> > >::operator()<boost::shared_ptr<pong::User> >
FUNC cbb6e 72 0 boost::detail::function::basic_vtable1<long int, const boost::shared_ptr<pong::User>&>::assign_to<boost::_bi::bind_t<long int, boost::_mfi::cmf0<long int, pong::User>, boost::_bi::list1<boost::arg<1> > > >
FUNC cbbe0 2f 0 boost::detail::function::functor_manager<boost::_bi::bind_t<bool, bool (*)(const boost::shared_ptr<pong::User>&, long int const&, const boost::function<long int(const boost::shared_ptr<pong::User>&)>&, pong::MatchCondition), boost::_bi::list4<boost::arg<1>, boost::_bi::value<long int>, boost::_bi::value<boost::function<long int(const boost::shared_ptr<pong::User>&)> >, boost::_bi::value<pong::MatchCondition> > > >::manager
FUNC cbc10 4b 0 boost::_bi::bind_t<bool, bool (*)(const boost::shared_ptr<pong::User>&, long int const&, const boost::function<long int(const boost::shared_ptr<pong::User>&)>&, pong::MatchCondition), boost::_bi::list4<boost::arg<1>, boost::_bi::value<long int>, boost::_bi::value<boost::function<long int(const boost::shared_ptr<pong::User>&)> >, boost::_bi::value<pong::MatchCondition> > >::operator()<boost::shared_ptr<pong::User> >
FUNC cbc5c 9d 0 boost::detail::function::basic_vtable1<bool, const boost::shared_ptr<pong::User>&>::assign_to<boost::_bi::bind_t<bool, bool (*)(const boost::shared_ptr<pong::User>&, long int const&, const boost::function<long int(const boost::shared_ptr<pong::User>&)>&, pong::MatchCondition), boost::_bi::list4<boost::arg<1>, boost::_bi::value<long int>, boost::_bi::value<boost::function<long int(const boost::shared_ptr<pong::User>&)> >, boost::_bi::value<pong::MatchCondition> > > >
FUNC cbcfa 14 0 __gnu_cxx::new_allocator<std::pair<boost::uuids::uuid, boost::shared_ptr<pong::User> > >::max_size
FUNC cbd0e ad 0 std::__uninitialized_copy<false>::__uninit_copy<std::move_iterator<std::pair<boost::uuids::uuid, boost::shared_ptr<pong::User> >*>, std::pair<boost::uuids::uuid, boost::shared_ptr<pong::User> >*>
FUNC cbdbb e 0 std::__addressof<std::pair<boost::uuids::uuid, boost::shared_ptr<pong::User> > >
FUNC cbdc9 1a 0 std::_Destroy<std::pair<boost::uuids::uuid, boost::shared_ptr<pong::User> > >
FUNC cbde4 4c 0 __gnu_cxx::new_allocator<std::pair<boost::uuids::uuid, boost::shared_ptr<pong::User> > >::construct<std::pair<boost::uuids::uuid, boost::shared_ptr<pong::User> >, std::pair<boost::uuids::uuid, boost::shared_ptr<pong::User> > >
FUNC cbe30 25 0 std::allocator_traits<std::allocator<std::pair<boost::uuids::uuid, boost::shared_ptr<pong::User> > > >::_S_destroy<std::pair<boost::uuids::uuid, boost::shared_ptr<pong::User> > >
FUNC cbe56 14 0 __gnu_cxx::new_allocator<std::pair<std::basic_string<char, std::char_traits<char>, std::allocator<char> >, boost::shared_ptr<pong::User> > >::max_size
FUNC cbe6a ad 0 std::__uninitialized_copy<false>::__uninit_copy<std::move_iterator<std::pair<std::basic_string<char>, boost::shared_ptr<pong::User> >*>, std::pair<std::basic_string<char>, boost::shared_ptr<pong::User> >*>
FUNC cbf17 e 0 std::__addressof<std::pair<std::basic_string<char>, boost::shared_ptr<pong::User> > >
FUNC cbf25 1a 0 std::_Destroy<std::pair<std::basic_string<char>, boost::shared_ptr<pong::User> > >
FUNC cbf40 4c 0 __gnu_cxx::new_allocator<std::pair<std::basic_string<char, std::char_traits<char>, std::allocator<char> >, boost::shared_ptr<pong::User> > >::construct<std::pair<std::basic_string<char>, boost::shared_ptr<pong::User> >, std::pair<std::basic_string<char, std::char_traits<char>, std::allocator<char> >, boost::shared_ptr<pong::User> > >
FUNC cbf8c 25 0 std::allocator_traits<std::allocator<std::pair<std::basic_string<char, std::char_traits<char>, std::allocator<char> >, boost::shared_ptr<pong::User> > > >::_S_destroy<std::pair<std::basic_string<char>, boost::shared_ptr<pong::User> > >
FUNC cbfb2 4c 0 __gnu_cxx::new_allocator<boost::shared_ptr<pong::User> >::construct<boost::shared_ptr<pong::User>, boost::shared_ptr<pong::User> >
FUNC cbffe 22 0 std::vector<boost::shared_ptr<pong::User>, std::allocator<boost::shared_ptr<pong::User> > >::max_size
FUNC cc020 42 0 __gnu_cxx::new_allocator<boost::shared_ptr<pong::User> >::allocate
FUNC cc062 25 0 std::__make_move_if_noexcept_iterator<boost::shared_ptr<pong::User>*, std::move_iterator<boost::shared_ptr<pong::User>*> >
FUNC cc087 31 0 std::__uninitialized_copy_a<std::move_iterator<boost::shared_ptr<pong::User>*>, boost::shared_ptr<pong::User>*, boost::shared_ptr<pong::User> >
FUNC cc0b8 25 0 std::allocator_traits<std::allocator<boost::shared_ptr<pong::User> > >::_S_destroy<boost::shared_ptr<pong::User> >
FUNC cc0dd 25 0 std::_Destroy<boost::shared_ptr<pong::User>*>
FUNC cc102 22 0 __gnu_cxx::new_allocator<boost::shared_ptr<pong::User> >::deallocate
FUNC cc124 a 0 __gnu_cxx::new_allocator<boost::shared_ptr<const fun::AttributeModel> >::new_allocator
FUNC cc12e e 0 std::__addressof<boost::shared_ptr<const fun::AttributeModel> >
FUNC cc13c 1a 0 std::_Destroy<boost::shared_ptr<const fun::AttributeModel> >
FUNC cc156 4c 0 __gnu_cxx::new_allocator<boost::shared_ptr<const fun::AttributeModel> >::construct<boost::shared_ptr<const fun::AttributeModel>, boost::shared_ptr<const fun::AttributeModel> >
FUNC cc1a2 22 0 std::vector<boost::shared_ptr<const fun::AttributeModel>, std::allocator<boost::shared_ptr<const fun::AttributeModel> > >::max_size
FUNC cc1c4 42 0 __gnu_cxx::new_allocator<boost::shared_ptr<const fun::AttributeModel> >::allocate
FUNC cc206 25 0 std::__make_move_if_noexcept_iterator<boost::shared_ptr<const fun::AttributeModel>*, std::move_iterator<boost::shared_ptr<const fun::AttributeModel>*> >
FUNC cc22b 31 0 std::__uninitialized_copy_a<std::move_iterator<boost::shared_ptr<const fun::AttributeModel>*>, boost::shared_ptr<const fun::AttributeModel>*, boost::shared_ptr<const fun::AttributeModel> >
FUNC cc25c 25 0 std::allocator_traits<std::allocator<boost::shared_ptr<const fun::AttributeModel> > >::_S_destroy<boost::shared_ptr<const fun::AttributeModel> >
FUNC cc282 1a 0 std::_Rb_tree<std::basic_string<char, std::char_traits<char>, std::allocator<char> >, std::pair<const std::basic_string<char, std::char_traits<char>, std::allocator<char> >, boost::shared_ptr<const fun::AttributeModel> >, std::_Select1st<std::pair<const std::basic_string<char, std::char_traits<char>, std::allocator<char> >, boost::shared_ptr<const fun::AttributeModel> > >, std::less<std::basic_string<char, std::char_traits<char>, std::allocator<char> > >, std::allocator<std::pair<const std::basic_string<char, std::char_traits<char>, std::allocator<char> >, boost::shared_ptr<const fun::AttributeModel> > > >::_Rb_tree_impl<std::less<std::basic_string<char, std::char_traits<char>, std::allocator<char> > >, true>::~_Rb_tree_impl
FUNC cc29c 38 0 std::_Rb_tree<std::basic_string<char, std::char_traits<char>, std::allocator<char> >, std::pair<const std::basic_string<char, std::char_traits<char>, std::allocator<char> >, boost::shared_ptr<const fun::AttributeModel> >, std::_Select1st<std::pair<const std::basic_string<char, std::char_traits<char>, std::allocator<char> >, boost::shared_ptr<const fun::AttributeModel> > >, std::less<std::basic_string<char, std::char_traits<char>, std::allocator<char> > >, std::allocator<std::pair<const std::basic_string<char, std::char_traits<char>, std::allocator<char> >, boost::shared_ptr<const fun::AttributeModel> > > >::~_Rb_tree
FUNC cc2d4 37 0 boost::detail::variant::visitation_impl_invoke<boost::detail::variant::destroyer, void*, fun::AttributeValue::kNull, boost::variant<fun::AttributeValue::kNull, bool, long int, double, std::basic_string<char>, boost::uuids::uuid>::has_fallback_type_>
FUNC cc30b 37 0 boost::detail::variant::visitation_impl_invoke<boost::detail::variant::destroyer, void*, bool, boost::variant<fun::AttributeValue::kNull, bool, long int, double, std::basic_string<char>, boost::uuids::uuid>::has_fallback_type_>
FUNC cc342 37 0 boost::detail::variant::visitation_impl_invoke<boost::detail::variant::destroyer, void*, long int, boost::variant<fun::AttributeValue::kNull, bool, long int, double, std::basic_string<char>, boost::uuids::uuid>::has_fallback_type_>
FUNC cc379 37 0 boost::detail::variant::visitation_impl_invoke<boost::detail::variant::destroyer, void*, double, boost::variant<fun::AttributeValue::kNull, bool, long int, double, std::basic_string<char>, boost::uuids::uuid>::has_fallback_type_>
FUNC cc3b0 37 0 boost::detail::variant::visitation_impl_invoke<boost::detail::variant::destroyer, void*, std::basic_string<char>, boost::variant<fun::AttributeValue::kNull, bool, long int, double, std::basic_string<char>, boost::uuids::uuid>::has_fallback_type_>
FUNC cc3e7 37 0 boost::detail::variant::visitation_impl_invoke<boost::detail::variant::destroyer, void*, boost::uuids::uuid, boost::variant<fun::AttributeValue::kNull, bool, long int, double, std::basic_string<char>, boost::uuids::uuid>::has_fallback_type_>
FUNC cc41e 3a 0 boost::detail::variant::visitation_impl_invoke<boost::detail::variant::destroyer, void*, boost::variant<fun::AttributeValue::kNull, bool, long int, double, std::basic_string<char>, boost::uuids::uuid>::has_fallback_type_>
FUNC cc458 3d 0 boost::detail::variant::visitation_impl<mpl_::int_<20>, boost::detail::variant::visitation_impl_step<boost::mpl::l_iter<boost::mpl::l_end>, boost::mpl::l_iter<boost::mpl::l_end> >, boost::detail::variant::destroyer, void*, boost::variant<fun::AttributeValue::kNull, bool, long int, double, std::basic_string<char>, boost::uuids::uuid>::has_fallback_type_>
FUNC cc495 46 0 std::copy<std::move_iterator<boost::uuids::uuid*>, boost::uuids::uuid*>
FUNC cc4dc e 0 __gnu_cxx::new_allocator<boost::uuids::uuid>::destroy<boost::uuids::uuid>
FUNC cc4ea 2b 0 boost::detail::function::functor_manager<boost::_bi::bind_t<const boost::uuids::uuid&, boost::_mfi::cmf0<const boost::uuids::uuid&, pong::Character>, boost::_bi::list1<boost::arg<1> > > >::manager
FUNC cc516 25 0 boost::_bi::list1<const boost::shared_ptr<pong::Character>&>::list1
FUNC cc53c 55 0 boost::_bi::list1<boost::arg<1> >::operator()<const boost::uuids::uuid&, boost::_mfi::cmf0<const boost::uuids::uuid&, pong::Character>, boost::_bi::list1<const boost::shared_ptr<pong::Character>&> >
FUNC cc591 3a 0 boost::addressof<boost::_bi::bind_t<const boost::uuids::uuid&, boost::_mfi::cmf0<const boost::uuids::uuid&, pong::Character>, boost::_bi::list1<boost::arg<1> > > >
FUNC cc5cc 3f 0 boost::detail::function::basic_vtable1<boost::uuids::uuid, const boost::shared_ptr<pong::Character>&>::assign_functor<boost::_bi::bind_t<const boost::uuids::uuid&, boost::_mfi::cmf0<const boost::uuids::uuid&, pong::Character>, boost::_bi::list1<boost::arg<1> > > >
FUNC cc60b 154 0 boost::detail::function::functor_manager<boost::_bi::bind_t<bool, bool (*)(const boost::shared_ptr<pong::Character>&, const boost::uuids::uuid&, const boost::function<boost::uuids::uuid(const boost::shared_ptr<pong::Character>&)>&, pong::MatchCondition), boost::_bi::list4<boost::arg<1>, boost::_bi::value<boost::uuids::uuid>, boost::_bi::value<boost::function<boost::uuids::uuid(const boost::shared_ptr<pong::Character>&)> >, boost::_bi::value<pong::MatchCondition> > > >::manager
FUNC cc760 ae 0 boost::_bi::list4<boost::arg<1>, boost::_bi::value<boost::uuids::uuid>, boost::_bi::value<boost::function<boost::uuids::uuid(const boost::shared_ptr<pong::Character>&)> >, boost::_bi::value<pong::MatchCondition> >::operator()<bool, bool (*)(const boost::shared_ptr<pong::Character>&, const boost::uuids::uuid&, const boost::function<boost::uuids::uuid(const boost::shared_ptr<pong::Character>&)>&, pong::MatchCondition), boost::_bi::list1<const boost::shared_ptr<pong::Character>&> >
FUNC cc80e 3a 0 boost::addressof<boost::_bi::bind_t<bool, bool (*)(const boost::shared_ptr<pong::Character>&, const boost::uuids::uuid&, const boost::function<boost::uuids::uuid(const boost::shared_ptr<pong::Character>&)>&, pong::MatchCondition), boost::_bi::list4<boost::arg<1>, boost::_bi::value<boost::uuids::uuid>, boost::_bi::value<boost::function<boost::uuids::uuid(const boost::shared_ptr<pong::Character>&)> >, boost::_bi::value<pong::MatchCondition> > > >
FUNC cc848 5b 0 boost::detail::function::basic_vtable1<bool, const boost::shared_ptr<pong::Character>&>::assign_functor<boost::_bi::bind_t<bool, bool (*)(const boost::shared_ptr<pong::Character>&, const boost::uuids::uuid&, const boost::function<boost::uuids::uuid(const boost::shared_ptr<pong::Character>&)>&, pong::MatchCondition), boost::_bi::list4<boost::arg<1>, boost::_bi::value<boost::uuids::uuid>, boost::_bi::value<boost::function<boost::uuids::uuid(const boost::shared_ptr<pong::Character>&)> >, boost::_bi::value<pong::MatchCondition> > > >
FUNC cc8a3 2b 0 boost::detail::function::functor_manager<boost::_bi::bind_t<std::basic_string<char, std::char_traits<char>, std::allocator<char> >, boost::_mfi::cmf0<std::basic_string<char, std::char_traits<char>, std::allocator<char> >, pong::Character>, boost::_bi::list1<boost::arg<1> > > >::manager
FUNC cc8ce 67 0 boost::_bi::list1<boost::arg<1> >::operator()<std::basic_string<char>, boost::_mfi::cmf0<std::basic_string<char>, pong::Character>, boost::_bi::list1<const boost::shared_ptr<pong::Character>&> >
FUNC cc935 3a 0 boost::addressof<boost::_bi::bind_t<std::basic_string<char>, boost::_mfi::cmf0<std::basic_string<char>, pong::Character>, boost::_bi::list1<boost::arg<1> > > >
FUNC cc970 3f 0 boost::detail::function::basic_vtable1<std::basic_string<char, std::char_traits<char>, std::allocator<char> >, const boost::shared_ptr<pong::Character>&>::assign_functor<boost::_bi::bind_t<std::basic_string<char>, boost::_mfi::cmf0<std::basic_string<char>, pong::Character>, boost::_bi::list1<boost::arg<1> > > >
FUNC cc9af 154 0 boost::detail::function::functor_manager<boost::_bi::bind_t<bool, bool (*)(const boost::shared_ptr<pong::Character>&, const std::basic_string<char, std::char_traits<char>, std::allocator<char> >&, const boost::function<std::basic_string<char, std::char_traits<char>, std::allocator<char> >(const boost::shared_ptr<pong::Character>&)>&, pong::MatchCondition), boost::_bi::list4<boost::arg<1>, boost::_bi::value<std::basic_string<char, std::char_traits<char>, std::allocator<char> > >, boost::_bi::value<boost::function<std::basic_string<char, std::char_traits<char>, std::allocator<char> >(const boost::shared_ptr<pong::Character>&)> >, boost::_bi::value<pong::MatchCondition> > > >::manager
FUNC ccb04 ae 0 boost::_bi::list4<boost::arg<1>, boost::_bi::value<std::basic_string<char, std::char_traits<char>, std::allocator<char> > >, boost::_bi::value<boost::function<std::basic_string<char, std::char_traits<char>, std::allocator<char> >(const boost::shared_ptr<pong::Character>&)> >, boost::_bi::value<pong::MatchCondition> >::operator()<bool, bool (*)(const boost::shared_ptr<pong::Character>&, const std::basic_string<char>&, const boost::function<std::basic_string<char>(const boost::shared_ptr<pong::Character>&)>&, pong::MatchCondition), boost::_bi::list1<const boost::shared_ptr<pong::Character>&> >
FUNC ccbb2 3a 0 boost::addressof<boost::_bi::bind_t<bool, bool (*)(const boost::shared_ptr<pong::Character>&, const std::basic_string<char>&, const boost::function<std::basic_string<char>(const boost::shared_ptr<pong::Character>&)>&, pong::MatchCondition), boost::_bi::list4<boost::arg<1>, boost::_bi::value<std::basic_string<char> >, boost::_bi::value<boost::function<std::basic_string<char>(const boost::shared_ptr<pong::Character>&)> >, boost::_bi::value<pong::MatchCondition> > > >
FUNC ccbec 5b 0 boost::detail::function::basic_vtable1<bool, const boost::shared_ptr<pong::Character>&>::assign_functor<boost::_bi::bind_t<bool, bool (*)(const boost::shared_ptr<pong::Character>&, const std::basic_string<char>&, const boost::function<std::basic_string<char>(const boost::shared_ptr<pong::Character>&)>&, pong::MatchCondition), boost::_bi::list4<boost::arg<1>, boost::_bi::value<std::basic_string<char> >, boost::_bi::value<boost::function<std::basic_string<char>(const boost::shared_ptr<pong::Character>&)> >, boost::_bi::value<pong::MatchCondition> > > >
FUNC ccc47 2b 0 boost::detail::function::functor_manager<boost::_bi::bind_t<long int, boost::_mfi::cmf0<long int, pong::Character>, boost::_bi::list1<boost::arg<1> > > >::manager
FUNC ccc72 55 0 boost::_bi::list1<boost::arg<1> >::operator()<long int, boost::_mfi::cmf0<long int, pong::Character>, boost::_bi::list1<const boost::shared_ptr<pong::Character>&> >
FUNC cccc7 3a 0 boost::addressof<boost::_bi::bind_t<long int, boost::_mfi::cmf0<long int, pong::Character>, boost::_bi::list1<boost::arg<1> > > >
FUNC ccd02 3f 0 boost::detail::function::basic_vtable1<long int, const boost::shared_ptr<pong::Character>&>::assign_functor<boost::_bi::bind_t<long int, boost::_mfi::cmf0<long int, pong::Character>, boost::_bi::list1<boost::arg<1> > > >
FUNC ccd41 154 0 boost::detail::function::functor_manager<boost::_bi::bind_t<bool, bool (*)(const boost::shared_ptr<pong::Character>&, long int const&, const boost::function<long int(const boost::shared_ptr<pong::Character>&)>&, pong::MatchCondition), boost::_bi::list4<boost::arg<1>, boost::_bi::value<long int>, boost::_bi::value<boost::function<long int(const boost::shared_ptr<pong::Character>&)> >, boost::_bi::value<pong::MatchCondition> > > >::manager
FUNC cce96 ae 0 boost::_bi::list4<boost::arg<1>, boost::_bi::value<long int>, boost::_bi::value<boost::function<long int(const boost::shared_ptr<pong::Character>&)> >, boost::_bi::value<pong::MatchCondition> >::operator()<bool, bool (*)(const boost::shared_ptr<pong::Character>&, long int const&, const boost::function<long int(const boost::shared_ptr<pong::Character>&)>&, pong::MatchCondition), boost::_bi::list1<const boost::shared_ptr<pong::Character>&> >
FUNC ccf44 3a 0 boost::addressof<boost::_bi::bind_t<bool, bool (*)(const boost::shared_ptr<pong::Character>&, long int const&, const boost::function<long int(const boost::shared_ptr<pong::Character>&)>&, pong::MatchCondition), boost::_bi::list4<boost::arg<1>, boost::_bi::value<long int>, boost::_bi::value<boost::function<long int(const boost::shared_ptr<pong::Character>&)> >, boost::_bi::value<pong::MatchCondition> > > >
FUNC ccf7e 5b 0 boost::detail::function::basic_vtable1<bool, const boost::shared_ptr<pong::Character>&>::assign_functor<boost::_bi::bind_t<bool, bool (*)(const boost::shared_ptr<pong::Character>&, long int const&, const boost::function<long int(const boost::shared_ptr<pong::Character>&)>&, pong::MatchCondition), boost::_bi::list4<boost::arg<1>, boost::_bi::value<long int>, boost::_bi::value<boost::function<long int(const boost::shared_ptr<pong::Character>&)> >, boost::_bi::value<pong::MatchCondition> > > >
FUNC ccfda 14 0 __gnu_cxx::new_allocator<std::_Rb_tree_node<std::pair<const std::basic_string<char, std::char_traits<char>, std::allocator<char> >, boost::shared_ptr<fun::AttributeValue> > > >::max_size
FUNC ccfee a8 0 __gnu_cxx::new_allocator<std::_Rb_tree_node<std::pair<const std::basic_string<char, std::char_traits<char>, std::allocator<char> >, boost::shared_ptr<fun::AttributeValue> > > >::construct<std::_Rb_tree_node<std::pair<const std::basic_string<char>, boost::shared_ptr<fun::AttributeValue> > >, const std::piecewise_construct_t&, std::tuple<std::basic_string<char, std::char_traits<char>, std::allocator<char> >&&>, std::tuple<> >
FUNC cd096 28 0 std::operator!=<std::pair<boost::uuids::uuid, boost::shared_ptr<fun::Object> >*>
FUNC cd0be 20 0 std::move_iterator<std::pair<boost::uuids::uuid, boost::shared_ptr<fun::Object> >*>::operator++
FUNC cd0de e 0 std::move<std::pair<boost::uuids::uuid, boost::shared_ptr<fun::Object> >&>
FUNC cd0ec 1d 0 std::move_iterator<std::pair<boost::uuids::uuid, boost::shared_ptr<fun::Object> >*>::operator*
FUNC cd109 e 0 std::forward<std::pair<boost::uuids::uuid, boost::shared_ptr<fun::Object> > >
FUNC cd118 43 0 std::pair<boost::uuids::uuid, boost::shared_ptr<fun::Object> >::pair
FUNC cd15b 48 0 std::_Construct<std::pair<boost::uuids::uuid, boost::shared_ptr<fun::Object> >, std::pair<boost::uuids::uuid, boost::shared_ptr<fun::Object> > >
FUNC cd1a3 28 0 std::operator!=<std::pair<boost::uuids::uuid, boost::shared_ptr<pong::Character> >*>
FUNC cd1cc 20 0 std::move_iterator<std::pair<boost::uuids::uuid, boost::shared_ptr<pong::Character> >*>::operator++
FUNC cd1ec 1d 0 std::move_iterator<std::pair<boost::uuids::uuid, boost::shared_ptr<pong::Character> >*>::operator*
FUNC cd209 48 0 std::_Construct<std::pair<boost::uuids::uuid, boost::shared_ptr<pong::Character> >, std::pair<boost::uuids::uuid, boost::shared_ptr<pong::Character> > >
FUNC cd252 1e 0 __gnu_cxx::new_allocator<std::pair<boost::uuids::uuid, boost::shared_ptr<pong::Character> > >::destroy<std::pair<boost::uuids::uuid, boost::shared_ptr<pong::Character> > >
FUNC cd270 28 0 std::operator!=<boost::shared_ptr<fun::AttributeValue>*>
FUNC cd298 20 0 std::move_iterator<boost::shared_ptr<fun::AttributeValue>*>::operator++
FUNC cd2b8 1d 0 std::move_iterator<boost::shared_ptr<fun::AttributeValue>*>::operator*
FUNC cd2d5 48 0 std::_Construct<boost::shared_ptr<fun::AttributeValue>, boost::shared_ptr<fun::AttributeValue> >
FUNC cd31e 56 0 boost::shared_ptr<fun::AttributeValue>::shared_ptr
FUNC cd374 1e 0 __gnu_cxx::new_allocator<boost::shared_ptr<fun::AttributeValue> >::destroy<boost::shared_ptr<fun::AttributeValue> >
FUNC cd392 28 0 std::operator!=<std::pair<std::basic_string<char>, boost::shared_ptr<pong::Character> >*>
FUNC cd3ba 20 0 std::move_iterator<std::pair<std::basic_string<char, std::char_traits<char>, std::allocator<char> >, boost::shared_ptr<pong::Character> >*>::operator++
FUNC cd3da 1d 0 std::move_iterator<std::pair<std::basic_string<char, std::char_traits<char>, std::allocator<char> >, boost::shared_ptr<pong::Character> >*>::operator*
FUNC cd3f7 48 0 std::_Construct<std::pair<std::basic_string<char>, boost::shared_ptr<pong::Character> >, std::pair<std::basic_string<char, std::char_traits<char>, std::allocator<char> >, boost::shared_ptr<pong::Character> > >
FUNC cd440 1e 0 __gnu_cxx::new_allocator<std::pair<std::basic_string<char, std::char_traits<char>, std::allocator<char> >, boost::shared_ptr<pong::Character> > >::destroy<std::pair<std::basic_string<char>, boost::shared_ptr<pong::Character> > >
FUNC cd45e 1a 0 std::allocator_traits<std::allocator<boost::shared_ptr<pong::Character> > >::max_size
FUNC cd478 e 0 std::_Vector_base<boost::shared_ptr<pong::Character>, std::allocator<boost::shared_ptr<pong::Character> > >::_M_get_Tp_allocator
FUNC cd486 14 0 __gnu_cxx::new_allocator<boost::shared_ptr<pong::Character> >::max_size
FUNC cd49a 19 0 std::move_iterator<boost::shared_ptr<pong::Character>*>::move_iterator
FUNC cd4b3 2d 0 std::uninitialized_copy<std::move_iterator<boost::shared_ptr<pong::Character>*>, boost::shared_ptr<pong::Character>*>
FUNC cd4e0 1e 0 __gnu_cxx::new_allocator<boost::shared_ptr<pong::Character> >::destroy<boost::shared_ptr<pong::Character> >
FUNC cd4fe 37 0 std::_Destroy_aux<false>::__destroy<boost::shared_ptr<pong::Character>*>
FUNC cd535 2b 0 boost::detail::function::functor_manager<boost::_bi::bind_t<const boost::uuids::uuid&, boost::_mfi::cmf0<const boost::uuids::uuid&, pong::User>, boost::_bi::list1<boost::arg<1> > > >::manager
FUNC cd560 25 0 boost::_bi::list1<const boost::shared_ptr<pong::User>&>::list1
FUNC cd586 55 0 boost::_bi::list1<boost::arg<1> >::operator()<const boost::uuids::uuid&, boost::_mfi::cmf0<const boost::uuids::uuid&, pong::User>, boost::_bi::list1<const boost::shared_ptr<pong::User>&> >
FUNC cd5db 3a 0 boost::addressof<boost::_bi::bind_t<const boost::uuids::uuid&, boost::_mfi::cmf0<const boost::uuids::uuid&, pong::User>, boost::_bi::list1<boost::arg<1> > > >
FUNC cd616 3f 0 boost::detail::function::basic_vtable1<boost::uuids::uuid, const boost::shared_ptr<pong::User>&>::assign_functor<boost::_bi::bind_t<const boost::uuids::uuid&, boost::_mfi::cmf0<const boost::uuids::uuid&, pong::User>, boost::_bi::list1<boost::arg<1> > > >
FUNC cd655 154 0 boost::detail::function::functor_manager<boost::_bi::bind_t<bool, bool (*)(const boost::shared_ptr<pong::User>&, const boost::uuids::uuid&, const boost::function<boost::uuids::uuid(const boost::shared_ptr<pong::User>&)>&, pong::MatchCondition), boost::_bi::list4<boost::arg<1>, boost::_bi::value<boost::uuids::uuid>, boost::_bi::value<boost::function<boost::uuids::uuid(const boost::shared_ptr<pong::User>&)> >, boost::_bi::value<pong::MatchCondition> > > >::manager
FUNC cd7aa ae 0 boost::_bi::list4<boost::arg<1>, boost::_bi::value<boost::uuids::uuid>, boost::_bi::value<boost::function<boost::uuids::uuid(const boost::shared_ptr<pong::User>&)> >, boost::_bi::value<pong::MatchCondition> >::operator()<bool, bool (*)(const boost::shared_ptr<pong::User>&, const boost::uuids::uuid&, const boost::function<boost::uuids::uuid(const boost::shared_ptr<pong::User>&)>&, pong::MatchCondition), boost::_bi::list1<const boost::shared_ptr<pong::User>&> >
FUNC cd858 3a 0 boost::addressof<boost::_bi::bind_t<bool, bool (*)(const boost::shared_ptr<pong::User>&, const boost::uuids::uuid&, const boost::function<boost::uuids::uuid(const boost::shared_ptr<pong::User>&)>&, pong::MatchCondition), boost::_bi::list4<boost::arg<1>, boost::_bi::value<boost::uuids::uuid>, boost::_bi::value<boost::function<boost::uuids::uuid(const boost::shared_ptr<pong::User>&)> >, boost::_bi::value<pong::MatchCondition> > > >
FUNC cd892 5b 0 boost::detail::function::basic_vtable1<bool, const boost::shared_ptr<pong::User>&>::assign_functor<boost::_bi::bind_t<bool, bool (*)(const boost::shared_ptr<pong::User>&, const boost::uuids::uuid&, const boost::function<boost::uuids::uuid(const boost::shared_ptr<pong::User>&)>&, pong::MatchCondition), boost::_bi::list4<boost::arg<1>, boost::_bi::value<boost::uuids::uuid>, boost::_bi::value<boost::function<boost::uuids::uuid(const boost::shared_ptr<pong::User>&)> >, boost::_bi::value<pong::MatchCondition> > > >
FUNC cd8ed 2b 0 boost::detail::function::functor_manager<boost::_bi::bind_t<std::basic_string<char, std::char_traits<char>, std::allocator<char> >, boost::_mfi::cmf0<std::basic_string<char, std::char_traits<char>, std::allocator<char> >, pong::User>, boost::_bi::list1<boost::arg<1> > > >::manager
FUNC cd918 67 0 boost::_bi::list1<boost::arg<1> >::operator()<std::basic_string<char>, boost::_mfi::cmf0<std::basic_string<char>, pong::User>, boost::_bi::list1<const boost::shared_ptr<pong::User>&> >
FUNC cd97f 3a 0 boost::addressof<boost::_bi::bind_t<std::basic_string<char>, boost::_mfi::cmf0<std::basic_string<char>, pong::User>, boost::_bi::list1<boost::arg<1> > > >
FUNC cd9ba 3f 0 boost::detail::function::basic_vtable1<std::basic_string<char, std::char_traits<char>, std::allocator<char> >, const boost::shared_ptr<pong::User>&>::assign_functor<boost::_bi::bind_t<std::basic_string<char>, boost::_mfi::cmf0<std::basic_string<char>, pong::User>, boost::_bi::list1<boost::arg<1> > > >
FUNC cd9f9 154 0 boost::detail::function::functor_manager<boost::_bi::bind_t<bool, bool (*)(const boost::shared_ptr<pong::User>&, const std::basic_string<char, std::char_traits<char>, std::allocator<char> >&, const boost::function<std::basic_string<char, std::char_traits<char>, std::allocator<char> >(const boost::shared_ptr<pong::User>&)>&, pong::MatchCondition), boost::_bi::list4<boost::arg<1>, boost::_bi::value<std::basic_string<char, std::char_traits<char>, std::allocator<char> > >, boost::_bi::value<boost::function<std::basic_string<char, std::char_traits<char>, std::allocator<char> >(const boost::shared_ptr<pong::User>&)> >, boost::_bi::value<pong::MatchCondition> > > >::manager
FUNC cdb4e ae 0 boost::_bi::list4<boost::arg<1>, boost::_bi::value<std::basic_string<char, std::char_traits<char>, std::allocator<char> > >, boost::_bi::value<boost::function<std::basic_string<char, std::char_traits<char>, std::allocator<char> >(const boost::shared_ptr<pong::User>&)> >, boost::_bi::value<pong::MatchCondition> >::operator()<bool, bool (*)(const boost::shared_ptr<pong::User>&, const std::basic_string<char>&, const boost::function<std::basic_string<char>(const boost::shared_ptr<pong::User>&)>&, pong::MatchCondition), boost::_bi::list1<const boost::shared_ptr<pong::User>&> >
FUNC cdbfc 3a 0 boost::addressof<boost::_bi::bind_t<bool, bool (*)(const boost::shared_ptr<pong::User>&, const std::basic_string<char>&, const boost::function<std::basic_string<char>(const boost::shared_ptr<pong::User>&)>&, pong::MatchCondition), boost::_bi::list4<boost::arg<1>, boost::_bi::value<std::basic_string<char> >, boost::_bi::value<boost::function<std::basic_string<char>(const boost::shared_ptr<pong::User>&)> >, boost::_bi::value<pong::MatchCondition> > > >
FUNC cdc36 5b 0 boost::detail::function::basic_vtable1<bool, const boost::shared_ptr<pong::User>&>::assign_functor<boost::_bi::bind_t<bool, bool (*)(const boost::shared_ptr<pong::User>&, const std::basic_string<char>&, const boost::function<std::basic_string<char>(const boost::shared_ptr<pong::User>&)>&, pong::MatchCondition), boost::_bi::list4<boost::arg<1>, boost::_bi::value<std::basic_string<char> >, boost::_bi::value<boost::function<std::basic_string<char>(const boost::shared_ptr<pong::User>&)> >, boost::_bi::value<pong::MatchCondition> > > >
FUNC cdc91 2b 0 boost::detail::function::functor_manager<boost::_bi::bind_t<boost::shared_ptr<pong::Character>, boost::_mfi::cmf0<boost::shared_ptr<pong::Character>, pong::User>, boost::_bi::list1<boost::arg<1> > > >::manager
FUNC cdcbc 67 0 boost::_bi::list1<boost::arg<1> >::operator()<boost::shared_ptr<pong::Character>, boost::_mfi::cmf0<boost::shared_ptr<pong::Character>, pong::User>, boost::_bi::list1<const boost::shared_ptr<pong::User>&> >
FUNC cdd23 3a 0 boost::addressof<boost::_bi::bind_t<boost::shared_ptr<pong::Character>, boost::_mfi::cmf0<boost::shared_ptr<pong::Character>, pong::User>, boost::_bi::list1<boost::arg<1> > > >
FUNC cdd5e 3f 0 boost::detail::function::basic_vtable1<boost::shared_ptr<pong::Character>, const boost::shared_ptr<pong::User>&>::assign_functor<boost::_bi::bind_t<boost::shared_ptr<pong::Character>, boost::_mfi::cmf0<boost::shared_ptr<pong::Character>, pong::User>, boost::_bi::list1<boost::arg<1> > > >
FUNC cdd9d 154 0 boost::detail::function::functor_manager<boost::_bi::bind_t<bool, bool (*)(const boost::shared_ptr<pong::User>&, const boost::function<bool(const boost::shared_ptr<pong::Character>&)>&, const boost::function<boost::shared_ptr<pong::Character>(const boost::shared_ptr<pong::User>&)>&), boost::_bi::list3<boost::arg<1>, boost::_bi::value<boost::function<bool(const boost::shared_ptr<pong::Character>&)> >, boost::_bi::value<boost::function<boost::shared_ptr<pong::Character>(const boost::shared_ptr<pong::User>&)> > > > >::manager
FUNC cdef2 8d 0 boost::_bi::list3<boost::arg<1>, boost::_bi::value<boost::function<bool(const boost::shared_ptr<pong::Character>&)> >, boost::_bi::value<boost::function<boost::shared_ptr<pong::Character>(const boost::shared_ptr<pong::User>&)> > >::operator()<bool, bool (*)(const boost::shared_ptr<pong::User>&, const boost::function<bool(const boost::shared_ptr<pong::Character>&)>&, const boost::function<boost::shared_ptr<pong::Character>(const boost::shared_ptr<pong::User>&)>&), boost::_bi::list1<const boost::shared_ptr<pong::User>&> >
FUNC cdf7f 3a 0 boost::addressof<boost::_bi::bind_t<bool, bool (*)(const boost::shared_ptr<pong::User>&, const boost::function<bool(const boost::shared_ptr<pong::Character>&)>&, const boost::function<boost::shared_ptr<pong::Character>(const boost::shared_ptr<pong::User>&)>&), boost::_bi::list3<boost::arg<1>, boost::_bi::value<boost::function<bool(const boost::shared_ptr<pong::Character>&)> >, boost::_bi::value<boost::function<boost::shared_ptr<pong::Character>(const boost::shared_ptr<pong::User>&)> > > > >
FUNC cdfba 5b 0 boost::detail::function::basic_vtable1<bool, const boost::shared_ptr<pong::User>&>::assign_functor<boost::_bi::bind_t<bool, bool (*)(const boost::shared_ptr<pong::User>&, const boost::function<bool(const boost::shared_ptr<pong::Character>&)>&, const boost::function<boost::shared_ptr<pong::Character>(const boost::shared_ptr<pong::User>&)>&), boost::_bi::list3<boost::arg<1>, boost::_bi::value<boost::function<bool(const boost::shared_ptr<pong::Character>&)> >, boost::_bi::value<boost::function<boost::shared_ptr<pong::Character>(const boost::shared_ptr<pong::User>&)> > > > >
FUNC ce015 2b 0 boost::detail::function::functor_manager<boost::_bi::bind_t<long int, boost::_mfi::cmf0<long int, pong::User>, boost::_bi::list1<boost::arg<1> > > >::manager
FUNC ce040 55 0 boost::_bi::list1<boost::arg<1> >::operator()<long int, boost::_mfi::cmf0<long int, pong::User>, boost::_bi::list1<const boost::shared_ptr<pong::User>&> >
FUNC ce095 3a 0 boost::addressof<boost::_bi::bind_t<long int, boost::_mfi::cmf0<long int, pong::User>, boost::_bi::list1<boost::arg<1> > > >
FUNC ce0d0 3f 0 boost::detail::function::basic_vtable1<long int, const boost::shared_ptr<pong::User>&>::assign_functor<boost::_bi::bind_t<long int, boost::_mfi::cmf0<long int, pong::User>, boost::_bi::list1<boost::arg<1> > > >
FUNC ce10f 154 0 boost::detail::function::functor_manager<boost::_bi::bind_t<bool, bool (*)(const boost::shared_ptr<pong::User>&, long int const&, const boost::function<long int(const boost::shared_ptr<pong::User>&)>&, pong::MatchCondition), boost::_bi::list4<boost::arg<1>, boost::_bi::value<long int>, boost::_bi::value<boost::function<long int(const boost::shared_ptr<pong::User>&)> >, boost::_bi::value<pong::MatchCondition> > > >::manager
FUNC ce264 ae 0 boost::_bi::list4<boost::arg<1>, boost::_bi::value<long int>, boost::_bi::value<boost::function<long int(const boost::shared_ptr<pong::User>&)> >, boost::_bi::value<pong::MatchCondition> >::operator()<bool, bool (*)(const boost::shared_ptr<pong::User>&, long int const&, const boost::function<long int(const boost::shared_ptr<pong::User>&)>&, pong::MatchCondition), boost::_bi::list1<const boost::shared_ptr<pong::User>&> >
FUNC ce312 3a 0 boost::addressof<boost::_bi::bind_t<bool, bool (*)(const boost::shared_ptr<pong::User>&, long int const&, const boost::function<long int(const boost::shared_ptr<pong::User>&)>&, pong::MatchCondition), boost::_bi::list4<boost::arg<1>, boost::_bi::value<long int>, boost::_bi::value<boost::function<long int(const boost::shared_ptr<pong::User>&)> >, boost::_bi::value<pong::MatchCondition> > > >
FUNC ce34c 5b 0 boost::detail::function::basic_vtable1<bool, const boost::shared_ptr<pong::User>&>::assign_functor<boost::_bi::bind_t<bool, bool (*)(const boost::shared_ptr<pong::User>&, long int const&, const boost::function<long int(const boost::shared_ptr<pong::User>&)>&, pong::MatchCondition), boost::_bi::list4<boost::arg<1>, boost::_bi::value<long int>, boost::_bi::value<boost::function<long int(const boost::shared_ptr<pong::User>&)> >, boost::_bi::value<pong::MatchCondition> > > >
FUNC ce3a7 28 0 std::operator!=<std::pair<boost::uuids::uuid, boost::shared_ptr<pong::User> >*>
FUNC ce3d0 20 0 std::move_iterator<std::pair<boost::uuids::uuid, boost::shared_ptr<pong::User> >*>::operator++
FUNC ce3f0 1d 0 std::move_iterator<std::pair<boost::uuids::uuid, boost::shared_ptr<pong::User> >*>::operator*
FUNC ce40d 48 0 std::_Construct<std::pair<boost::uuids::uuid, boost::shared_ptr<pong::User> >, std::pair<boost::uuids::uuid, boost::shared_ptr<pong::User> > >
FUNC ce456 1e 0 __gnu_cxx::new_allocator<std::pair<boost::uuids::uuid, boost::shared_ptr<pong::User> > >::destroy<std::pair<boost::uuids::uuid, boost::shared_ptr<pong::User> > >
FUNC ce474 28 0 std::operator!=<std::pair<std::basic_string<char>, boost::shared_ptr<pong::User> >*>
FUNC ce49c 20 0 std::move_iterator<std::pair<std::basic_string<char, std::char_traits<char>, std::allocator<char> >, boost::shared_ptr<pong::User> >*>::operator++
FUNC ce4bc 1d 0 std::move_iterator<std::pair<std::basic_string<char, std::char_traits<char>, std::allocator<char> >, boost::shared_ptr<pong::User> >*>::operator*
FUNC ce4d9 48 0 std::_Construct<std::pair<std::basic_string<char>, boost::shared_ptr<pong::User> >, std::pair<std::basic_string<char, std::char_traits<char>, std::allocator<char> >, boost::shared_ptr<pong::User> > >
FUNC ce522 1e 0 __gnu_cxx::new_allocator<std::pair<std::basic_string<char, std::char_traits<char>, std::allocator<char> >, boost::shared_ptr<pong::User> > >::destroy<std::pair<std::basic_string<char>, boost::shared_ptr<pong::User> > >
FUNC ce540 1a 0 std::allocator_traits<std::allocator<boost::shared_ptr<pong::User> > >::max_size
FUNC ce55a e 0 std::_Vector_base<boost::shared_ptr<pong::User>, std::allocator<boost::shared_ptr<pong::User> > >::_M_get_Tp_allocator
FUNC ce568 14 0 __gnu_cxx::new_allocator<boost::shared_ptr<pong::User> >::max_size
FUNC ce57c 19 0 std::move_iterator<boost::shared_ptr<pong::User>*>::move_iterator
FUNC ce595 2d 0 std::uninitialized_copy<std::move_iterator<boost::shared_ptr<pong::User>*>, boost::shared_ptr<pong::User>*>
FUNC ce5c2 1e 0 __gnu_cxx::new_allocator<boost::shared_ptr<pong::User> >::destroy<boost::shared_ptr<pong::User> >
FUNC ce5e0 37 0 std::_Destroy_aux<false>::__destroy<boost::shared_ptr<pong::User>*>
FUNC ce618 56 0 boost::shared_ptr<const fun::AttributeModel>::shared_ptr
FUNC ce66e 1a 0 std::allocator_traits<std::allocator<boost::shared_ptr<const fun::AttributeModel> > >::max_size
FUNC ce688 e 0 std::_Vector_base<boost::shared_ptr<const fun::AttributeModel>, std::allocator<boost::shared_ptr<const fun::AttributeModel> > >::_M_get_Tp_allocator
FUNC ce696 14 0 __gnu_cxx::new_allocator<boost::shared_ptr<const fun::AttributeModel> >::max_size
FUNC ce6aa 19 0 std::move_iterator<boost::shared_ptr<const fun::AttributeModel>*>::move_iterator
FUNC ce6c3 2d 0 std::uninitialized_copy<std::move_iterator<boost::shared_ptr<const fun::AttributeModel>*>, boost::shared_ptr<const fun::AttributeModel>*>
FUNC ce6f0 1e 0 __gnu_cxx::new_allocator<boost::shared_ptr<const fun::AttributeModel> >::destroy<boost::shared_ptr<const fun::AttributeModel> >
FUNC ce70e 1a 0 std::allocator<std::_Rb_tree_node<std::pair<const std::basic_string<char, std::char_traits<char>, std::allocator<char> >, boost::shared_ptr<const fun::AttributeModel> > > >::~allocator
FUNC ce728 64 0 std::_Rb_tree<std::basic_string<char, std::char_traits<char>, std::allocator<char> >, std::pair<const std::basic_string<char, std::char_traits<char>, std::allocator<char> >, boost::shared_ptr<const fun::AttributeModel> >, std::_Select1st<std::pair<const std::basic_string<char, std::char_traits<char>, std::allocator<char> >, boost::shared_ptr<const fun::AttributeModel> > >, std::less<std::basic_string<char, std::char_traits<char>, std::allocator<char> > >, std::allocator<std::pair<const std::basic_string<char, std::char_traits<char>, std::allocator<char> >, boost::shared_ptr<const fun::AttributeModel> > > >::_M_erase
FUNC ce78c 12 0 std::_Rb_tree<std::basic_string<char, std::char_traits<char>, std::allocator<char> >, std::pair<const std::basic_string<char, std::char_traits<char>, std::allocator<char> >, boost::shared_ptr<const fun::AttributeModel> >, std::_Select1st<std::pair<const std::basic_string<char, std::char_traits<char>, std::allocator<char> >, boost::shared_ptr<const fun::AttributeModel> > >, std::less<std::basic_string<char, std::char_traits<char>, std::allocator<char> > >, std::allocator<std::pair<const std::basic_string<char, std::char_traits<char>, std::allocator<char> >, boost::shared_ptr<const fun::AttributeModel> > > >::_M_begin
FUNC ce79e 3c 0 boost::detail::variant::visitation_impl_invoke_impl<boost::detail::variant::destroyer, void*, fun::AttributeValue::kNull>
FUNC ce7da 3c 0 boost::detail::variant::visitation_impl_invoke_impl<boost::detail::variant::destroyer, void*, bool>
FUNC ce816 3c 0 boost::detail::variant::visitation_impl_invoke_impl<boost::detail::variant::destroyer, void*, long int>
FUNC ce852 3c 0 boost::detail::variant::visitation_impl_invoke_impl<boost::detail::variant::destroyer, void*, double>
FUNC ce88e 3c 0 boost::detail::variant::visitation_impl_invoke_impl<boost::detail::variant::destroyer, void*, std::basic_string<char> >
FUNC ce8ca 3c 0 boost::detail::variant::visitation_impl_invoke_impl<boost::detail::variant::destroyer, void*, boost::uuids::uuid>
FUNC ce906 e 0 boost::detail::variant::cast_storage<fun::AttributeValue::kNull>
FUNC ce914 e 0 boost::detail::variant::cast_storage<bool>
FUNC ce922 e 0 boost::detail::variant::cast_storage<long int>
FUNC ce930 e 0 boost::detail::variant::cast_storage<double>
FUNC ce93e e 0 boost::detail::variant::cast_storage<std::basic_string<char> >
FUNC ce94c e 0 boost::detail::variant::cast_storage<boost::uuids::uuid>
FUNC ce95a 1a 0 std::__miter_base<std::move_iterator<boost::uuids::uuid*> >
FUNC ce974 58 0 std::__copy_move_a2<true, boost::uuids::uuid*, boost::uuids::uuid*>
FUNC ce9cc fd 0 boost::detail::function::functor_manager_common<boost::_bi::bind_t<const boost::uuids::uuid&, boost::_mfi::cmf0<const boost::uuids::uuid&, pong::Character>, boost::_bi::list1<boost::arg<1> > > >::manage_small
FUNC ceaca 19 0 boost::_bi::storage1<const boost::shared_ptr<pong::Character>&>::storage1
FUNC ceae3 12 0 boost::_bi::unwrapper<boost::_mfi::cmf0<const boost::uuids::uuid&, pong::Character> >::unwrap
FUNC ceaf5 1e 0 boost::_bi::storage1<boost::arg<1> >::a1_
FUNC ceb14 15 0 boost::_bi::list1<const boost::shared_ptr<pong::Character>&>::operator[]
FUNC ceb2a 31 0 boost::_mfi::cmf0<const boost::uuids::uuid&, pong::Character>::operator()<boost::shared_ptr<pong::Character> >
FUNC ceb5c 19 0 boost::detail::addr_impl_ref<boost::_bi::bind_t<const boost::uuids::uuid&, boost::_mfi::cmf0<const boost::uuids::uuid&, pong::Character>, boost::_bi::list1<boost::arg<1> > > >::addr_impl_ref
FUNC ceb76 11 0 boost::detail::addr_impl_ref<boost::_bi::bind_t<const boost::uuids::uuid&, boost::_mfi::cmf0<const boost::uuids::uuid&, pong::Character>, boost::_bi::list1<boost::arg<1> > > >::operator boost::_bi::bind_t<const boost::uuids::uuid&, boost::_mfi::cmf0<const boost::uuids::uuid&, pong::Character>, boost::_bi::list1<boost::arg<1> > >&
FUNC ceb87 12 0 boost::detail::addressof_impl<boost::_bi::bind_t<const boost::uuids::uuid&, boost::_mfi::cmf0<const boost::uuids::uuid&, pong::Character>, boost::_bi::list1<boost::arg<1> > > >::f
FUNC ceb99 12 0 boost::_bi::unwrapper<bool (*)(const boost::shared_ptr<pong::Character>&, const boost::uuids::uuid&, const boost::function<boost::uuids::uuid(const boost::shared_ptr<pong::Character>&)>&, pong::MatchCondition)>::unwrap
FUNC cebac 1e 0 boost::_bi::list1<const boost::shared_ptr<pong::Character>&>::operator[]<boost::uuids::uuid>
FUNC cebca 1e 0 boost::_bi::list1<const boost::shared_ptr<pong::Character>&>::operator[]<boost::function<boost::uuids::uuid(const boost::shared_ptr<pong::Character>&)> >
FUNC cebe8 1e 0 boost::_bi::list1<const boost::shared_ptr<pong::Character>&>::operator[]<pong::MatchCondition>
FUNC cec06 19 0 boost::detail::addr_impl_ref<boost::_bi::bind_t<bool, bool (*)(const boost::shared_ptr<pong::Character>&, const boost::uuids::uuid&, const boost::function<boost::uuids::uuid(const boost::shared_ptr<pong::Character>&)>&, pong::MatchCondition), boost::_bi::list4<boost::arg<1>, boost::_bi::value<boost::uuids::uuid>, boost::_bi::value<boost::function<boost::uuids::uuid(const boost::shared_ptr<pong::Character>&)> >, boost::_bi::value<pong::MatchCondition> > > >::addr_impl_ref
FUNC cec20 11 0 boost::detail::addr_impl_ref<boost::_bi::bind_t<bool, bool (*)(const boost::shared_ptr<pong::Character>&, const boost::uuids::uuid&, const boost::function<boost::uuids::uuid(const boost::shared_ptr<pong::Character>&)>&, pong::MatchCondition), boost::_bi::list4<boost::arg<1>, boost::_bi::value<boost::uuids::uuid>, boost::_bi::value<boost::function<boost::uuids::uuid(const boost::shared_ptr<pong::Character>&)> >, boost::_bi::value<pong::MatchCondition> > > >::operator boost::_bi::bind_t<bool, bool (*)(const boost::shared_ptr<pong::Character>&, const boost::uuids::uuid&, const boost::function<boost::uuids::uuid(const boost::shared_ptr<pong::Character>&)>&, pong::MatchCondition), boost::_bi::list4<boost::arg<1>, boost::_bi::value<boost::uuids::uuid>, boost::_bi::value<boost::function<boost::uuids::uuid(const boost::shared_ptr<pong::Character>&)> >, boost::_bi::value<pong::MatchCondition> > >&
FUNC cec31 12 0 boost::detail::addressof_impl<boost::_bi::bind_t<bool, bool (*)(const boost::shared_ptr<pong::Character>&, const boost::uuids::uuid&, const boost::function<boost::uuids::uuid(const boost::shared_ptr<pong::Character>&)>&, pong::MatchCondition), boost::_bi::list4<boost::arg<1>, boost::_bi::value<boost::uuids::uuid>, boost::_bi::value<boost::function<boost::uuids::uuid(const boost::shared_ptr<pong::Character>&)> >, boost::_bi::value<pong::MatchCondition> > > >::f
FUNC cec43 fd 0 boost::detail::function::functor_manager_common<boost::_bi::bind_t<std::basic_string<char, std::char_traits<char>, std::allocator<char> >, boost::_mfi::cmf0<std::basic_string<char, std::char_traits<char>, std::allocator<char> >, pong::Character>, boost::_bi::list1<boost::arg<1> > > >::manage_small
FUNC ced40 12 0 boost::_bi::unwrapper<boost::_mfi::cmf0<std::basic_string<char, std::char_traits<char>, std::allocator<char> >, pong::Character> >::unwrap
FUNC ced52 3a 0 boost::_mfi::cmf0<std::basic_string<char, std::char_traits<char>, std::allocator<char> >, pong::Character>::operator()<boost::shared_ptr<pong::Character> >
FUNC ced8c 19 0 boost::detail::addr_impl_ref<boost::_bi::bind_t<std::basic_string<char, std::char_traits<char>, std::allocator<char> >, boost::_mfi::cmf0<std::basic_string<char, std::char_traits<char>, std::allocator<char> >, pong::Character>, boost::_bi::list1<boost::arg<1> > > >::addr_impl_ref
FUNC ceda6 11 0 boost::detail::addr_impl_ref<boost::_bi::bind_t<std::basic_string<char, std::char_traits<char>, std::allocator<char> >, boost::_mfi::cmf0<std::basic_string<char, std::char_traits<char>, std::allocator<char> >, pong::Character>, boost::_bi::list1<boost::arg<1> > > >::operator boost::_bi::bind_t<std::basic_string<char>, boost::_mfi::cmf0<std::basic_string<char>, pong::Character>, boost::_bi::list1<boost::arg<1> > >&
FUNC cedb7 12 0 boost::detail::addressof_impl<boost::_bi::bind_t<std::basic_string<char, std::char_traits<char>, std::allocator<char> >, boost::_mfi::cmf0<std::basic_string<char, std::char_traits<char>, std::allocator<char> >, pong::Character>, boost::_bi::list1<boost::arg<1> > > >::f
FUNC cedc9 12 0 boost::_bi::unwrapper<bool (*)(const boost::shared_ptr<pong::Character>&, const std::basic_string<char, std::char_traits<char>, std::allocator<char> >&, const boost::function<std::basic_string<char, std::char_traits<char>, std::allocator<char> >(const boost::shared_ptr<pong::Character>&)>&, pong::MatchCondition)>::unwrap
FUNC ceddc 1e 0 boost::_bi::list1<const boost::shared_ptr<pong::Character>&>::operator[]<std::basic_string<char> >
FUNC cedfa 1e 0 boost::_bi::list1<const boost::shared_ptr<pong::Character>&>::operator[]<boost::function<std::basic_string<char>(const boost::shared_ptr<pong::Character>&)> >
FUNC cee18 19 0 boost::detail::addr_impl_ref<boost::_bi::bind_t<bool, bool (*)(const boost::shared_ptr<pong::Character>&, const std::basic_string<char, std::char_traits<char>, std::allocator<char> >&, const boost::function<std::basic_string<char, std::char_traits<char>, std::allocator<char> >(const boost::shared_ptr<pong::Character>&)>&, pong::MatchCondition), boost::_bi::list4<boost::arg<1>, boost::_bi::value<std::basic_string<char, std::char_traits<char>, std::allocator<char> > >, boost::_bi::value<boost::function<std::basic_string<char, std::char_traits<char>, std::allocator<char> >(const boost::shared_ptr<pong::Character>&)> >, boost::_bi::value<pong::MatchCondition> > > >::addr_impl_ref
FUNC cee32 11 0 boost::detail::addr_impl_ref<boost::_bi::bind_t<bool, bool (*)(const boost::shared_ptr<pong::Character>&, const std::basic_string<char, std::char_traits<char>, std::allocator<char> >&, const boost::function<std::basic_string<char, std::char_traits<char>, std::allocator<char> >(const boost::shared_ptr<pong::Character>&)>&, pong::MatchCondition), boost::_bi::list4<boost::arg<1>, boost::_bi::value<std::basic_string<char, std::char_traits<char>, std::allocator<char> > >, boost::_bi::value<boost::function<std::basic_string<char, std::char_traits<char>, std::allocator<char> >(const boost::shared_ptr<pong::Character>&)> >, boost::_bi::value<pong::MatchCondition> > > >::operator boost::_bi::bind_t<bool, bool (*)(const boost::shared_ptr<pong::Character>&, const std::basic_string<char>&, const boost::function<std::basic_string<char>(const boost::shared_ptr<pong::Character>&)>&, pong::MatchCondition), boost::_bi::list4<boost::arg<1>, boost::_bi::value<std::basic_string<char> >, boost::_bi::value<boost::function<std::basic_string<char>(const boost::shared_ptr<pong::Character>&)> >, boost::_bi::value<pong::MatchCondition> > >&
FUNC cee43 12 0 boost::detail::addressof_impl<boost::_bi::bind_t<bool, bool (*)(const boost::shared_ptr<pong::Character>&, const std::basic_string<char, std::char_traits<char>, std::allocator<char> >&, const boost::function<std::basic_string<char, std::char_traits<char>, std::allocator<char> >(const boost::shared_ptr<pong::Character>&)>&, pong::MatchCondition), boost::_bi::list4<boost::arg<1>, boost::_bi::value<std::basic_string<char, std::char_traits<char>, std::allocator<char> > >, boost::_bi::value<boost::function<std::basic_string<char, std::char_traits<char>, std::allocator<char> >(const boost::shared_ptr<pong::Character>&)> >, boost::_bi::value<pong::MatchCondition> > > >::f
FUNC cee55 fd 0 boost::detail::function::functor_manager_common<boost::_bi::bind_t<long int, boost::_mfi::cmf0<long int, pong::Character>, boost::_bi::list1<boost::arg<1> > > >::manage_small
FUNC cef52 12 0 boost::_bi::unwrapper<boost::_mfi::cmf0<long int, pong::Character> >::unwrap
FUNC cef64 31 0 boost::_mfi::cmf0<long int, pong::Character>::operator()<boost::shared_ptr<pong::Character> >
FUNC cef96 19 0 boost::detail::addr_impl_ref<boost::_bi::bind_t<long int, boost::_mfi::cmf0<long int, pong::Character>, boost::_bi::list1<boost::arg<1> > > >::addr_impl_ref
FUNC cefb0 11 0 boost::detail::addr_impl_ref<boost::_bi::bind_t<long int, boost::_mfi::cmf0<long int, pong::Character>, boost::_bi::list1<boost::arg<1> > > >::operator boost::_bi::bind_t<long int, boost::_mfi::cmf0<long int, pong::Character>, boost::_bi::list1<boost::arg<1> > >&
FUNC cefc1 12 0 boost::detail::addressof_impl<boost::_bi::bind_t<long int, boost::_mfi::cmf0<long int, pong::Character>, boost::_bi::list1<boost::arg<1> > > >::f
FUNC cefd3 12 0 boost::_bi::unwrapper<bool (*)(const boost::shared_ptr<pong::Character>&, long int const&, const boost::function<long int(const boost::shared_ptr<pong::Character>&)>&, pong::MatchCondition)>::unwrap
FUNC cefe6 1e 0 boost::_bi::list1<const boost::shared_ptr<pong::Character>&>::operator[]<long int>
FUNC cf004 1e 0 boost::_bi::list1<const boost::shared_ptr<pong::Character>&>::operator[]<boost::function<long int(const boost::shared_ptr<pong::Character>&)> >
FUNC cf022 19 0 boost::detail::addr_impl_ref<boost::_bi::bind_t<bool, bool (*)(const boost::shared_ptr<pong::Character>&, long int const&, const boost::function<long int(const boost::shared_ptr<pong::Character>&)>&, pong::MatchCondition), boost::_bi::list4<boost::arg<1>, boost::_bi::value<long int>, boost::_bi::value<boost::function<long int(const boost::shared_ptr<pong::Character>&)> >, boost::_bi::value<pong::MatchCondition> > > >::addr_impl_ref
FUNC cf03c 11 0 boost::detail::addr_impl_ref<boost::_bi::bind_t<bool, bool (*)(const boost::shared_ptr<pong::Character>&, long int const&, const boost::function<long int(const boost::shared_ptr<pong::Character>&)>&, pong::MatchCondition), boost::_bi::list4<boost::arg<1>, boost::_bi::value<long int>, boost::_bi::value<boost::function<long int(const boost::shared_ptr<pong::Character>&)> >, boost::_bi::value<pong::MatchCondition> > > >::operator boost::_bi::bind_t<bool, bool (*)(const boost::shared_ptr<pong::Character>&, long int const&, const boost::function<long int(const boost::shared_ptr<pong::Character>&)>&, pong::MatchCondition), boost::_bi::list4<boost::arg<1>, boost::_bi::value<long int>, boost::_bi::value<boost::function<long int(const boost::shared_ptr<pong::Character>&)> >, boost::_bi::value<pong::MatchCondition> > >&
FUNC cf04d 12 0 boost::detail::addressof_impl<boost::_bi::bind_t<bool, bool (*)(const boost::shared_ptr<pong::Character>&, long int const&, const boost::function<long int(const boost::shared_ptr<pong::Character>&)>&, pong::MatchCondition), boost::_bi::list4<boost::arg<1>, boost::_bi::value<long int>, boost::_bi::value<boost::function<long int(const boost::shared_ptr<pong::Character>&)> >, boost::_bi::value<pong::MatchCondition> > > >::f
FUNC cf060 a7 0 std::_Rb_tree_node<std::pair<const std::basic_string<char, std::char_traits<char>, std::allocator<char> >, boost::shared_ptr<fun::AttributeValue> > >::_Rb_tree_node<const std::piecewise_construct_t&, std::tuple<std::basic_string<char, std::char_traits<char>, std::allocator<char> >&&>, std::tuple<> >
FUNC cf107 39 0 std::operator==<std::pair<boost::uuids::uuid, boost::shared_ptr<fun::Object> >*>
FUNC cf140 39 0 std::operator==<std::pair<boost::uuids::uuid, boost::shared_ptr<pong::Character> >*>
FUNC cf179 39 0 std::operator==<boost::shared_ptr<fun::AttributeValue>*>
FUNC cf1b2 39 0 std::operator==<std::pair<std::basic_string<char>, boost::shared_ptr<pong::Character> >*>
FUNC cf1eb 1a 0 std::allocator_traits<std::allocator<boost::shared_ptr<pong::Character> > >::_S_max_size<const std::allocator<boost::shared_ptr<pong::Character> > >
FUNC cf205 ad 0 std::__uninitialized_copy<false>::__uninit_copy<std::move_iterator<boost::shared_ptr<pong::Character>*>, boost::shared_ptr<pong::Character>*>
FUNC cf2b2 e 0 std::__addressof<boost::shared_ptr<pong::Character> >
FUNC cf2c0 1a 0 std::_Destroy<boost::shared_ptr<pong::Character> >
FUNC cf2da fd 0 boost::detail::function::functor_manager_common<boost::_bi::bind_t<const boost::uuids::uuid&, boost::_mfi::cmf0<const boost::uuids::uuid&, pong::User>, boost::_bi::list1<boost::arg<1> > > >::manage_small
FUNC cf3d8 19 0 boost::_bi::storage1<const boost::shared_ptr<pong::User>&>::storage1
FUNC cf3f1 12 0 boost::_bi::unwrapper<boost::_mfi::cmf0<const boost::uuids::uuid&, pong::User> >::unwrap
FUNC cf404 15 0 boost::_bi::list1<const boost::shared_ptr<pong::User>&>::operator[]
FUNC cf41a 31 0 boost::_mfi::cmf0<const boost::uuids::uuid&, pong::User>::operator()<boost::shared_ptr<pong::User> >
FUNC cf44c 19 0 boost::detail::addr_impl_ref<boost::_bi::bind_t<const boost::uuids::uuid&, boost::_mfi::cmf0<const boost::uuids::uuid&, pong::User>, boost::_bi::list1<boost::arg<1> > > >::addr_impl_ref
FUNC cf466 11 0 boost::detail::addr_impl_ref<boost::_bi::bind_t<const boost::uuids::uuid&, boost::_mfi::cmf0<const boost::uuids::uuid&, pong::User>, boost::_bi::list1<boost::arg<1> > > >::operator boost::_bi::bind_t<const boost::uuids::uuid&, boost::_mfi::cmf0<const boost::uuids::uuid&, pong::User>, boost::_bi::list1<boost::arg<1> > >&
FUNC cf477 12 0 boost::detail::addressof_impl<boost::_bi::bind_t<const boost::uuids::uuid&, boost::_mfi::cmf0<const boost::uuids::uuid&, pong::User>, boost::_bi::list1<boost::arg<1> > > >::f
FUNC cf489 12 0 boost::_bi::unwrapper<bool (*)(const boost::shared_ptr<pong::User>&, const boost::uuids::uuid&, const boost::function<boost::uuids::uuid(const boost::shared_ptr<pong::User>&)>&, pong::MatchCondition)>::unwrap
FUNC cf49c 1e 0 boost::_bi::list1<const boost::shared_ptr<pong::User>&>::operator[]<boost::uuids::uuid>
FUNC cf4ba 1e 0 boost::_bi::list1<const boost::shared_ptr<pong::User>&>::operator[]<boost::function<boost::uuids::uuid(const boost::shared_ptr<pong::User>&)> >
FUNC cf4d8 1e 0 boost::_bi::list1<const boost::shared_ptr<pong::User>&>::operator[]<pong::MatchCondition>
FUNC cf4f6 19 0 boost::detail::addr_impl_ref<boost::_bi::bind_t<bool, bool (*)(const boost::shared_ptr<pong::User>&, const boost::uuids::uuid&, const boost::function<boost::uuids::uuid(const boost::shared_ptr<pong::User>&)>&, pong::MatchCondition), boost::_bi::list4<boost::arg<1>, boost::_bi::value<boost::uuids::uuid>, boost::_bi::value<boost::function<boost::uuids::uuid(const boost::shared_ptr<pong::User>&)> >, boost::_bi::value<pong::MatchCondition> > > >::addr_impl_ref
FUNC cf510 11 0 boost::detail::addr_impl_ref<boost::_bi::bind_t<bool, bool (*)(const boost::shared_ptr<pong::User>&, const boost::uuids::uuid&, const boost::function<boost::uuids::uuid(const boost::shared_ptr<pong::User>&)>&, pong::MatchCondition), boost::_bi::list4<boost::arg<1>, boost::_bi::value<boost::uuids::uuid>, boost::_bi::value<boost::function<boost::uuids::uuid(const boost::shared_ptr<pong::User>&)> >, boost::_bi::value<pong::MatchCondition> > > >::operator boost::_bi::bind_t<bool, bool (*)(const boost::shared_ptr<pong::User>&, const boost::uuids::uuid&, const boost::function<boost::uuids::uuid(const boost::shared_ptr<pong::User>&)>&, pong::MatchCondition), boost::_bi::list4<boost::arg<1>, boost::_bi::value<boost::uuids::uuid>, boost::_bi::value<boost::function<boost::uuids::uuid(const boost::shared_ptr<pong::User>&)> >, boost::_bi::value<pong::MatchCondition> > >&
FUNC cf521 12 0 boost::detail::addressof_impl<boost::_bi::bind_t<bool, bool (*)(const boost::shared_ptr<pong::User>&, const boost::uuids::uuid&, const boost::function<boost::uuids::uuid(const boost::shared_ptr<pong::User>&)>&, pong::MatchCondition), boost::_bi::list4<boost::arg<1>, boost::_bi::value<boost::uuids::uuid>, boost::_bi::value<boost::function<boost::uuids::uuid(const boost::shared_ptr<pong::User>&)> >, boost::_bi::value<pong::MatchCondition> > > >::f
FUNC cf533 fd 0 boost::detail::function::functor_manager_common<boost::_bi::bind_t<std::basic_string<char, std::char_traits<char>, std::allocator<char> >, boost::_mfi::cmf0<std::basic_string<char, std::char_traits<char>, std::allocator<char> >, pong::User>, boost::_bi::list1<boost::arg<1> > > >::manage_small
FUNC cf630 12 0 boost::_bi::unwrapper<boost::_mfi::cmf0<std::basic_string<char, std::char_traits<char>, std::allocator<char> >, pong::User> >::unwrap
FUNC cf642 3a 0 boost::_mfi::cmf0<std::basic_string<char, std::char_traits<char>, std::allocator<char> >, pong::User>::operator()<boost::shared_ptr<pong::User> >
FUNC cf67c 19 0 boost::detail::addr_impl_ref<boost::_bi::bind_t<std::basic_string<char, std::char_traits<char>, std::allocator<char> >, boost::_mfi::cmf0<std::basic_string<char, std::char_traits<char>, std::allocator<char> >, pong::User>, boost::_bi::list1<boost::arg<1> > > >::addr_impl_ref
FUNC cf696 11 0 boost::detail::addr_impl_ref<boost::_bi::bind_t<std::basic_string<char, std::char_traits<char>, std::allocator<char> >, boost::_mfi::cmf0<std::basic_string<char, std::char_traits<char>, std::allocator<char> >, pong::User>, boost::_bi::list1<boost::arg<1> > > >::operator boost::_bi::bind_t<std::basic_string<char>, boost::_mfi::cmf0<std::basic_string<char>, pong::User>, boost::_bi::list1<boost::arg<1> > >&
FUNC cf6a7 12 0 boost::detail::addressof_impl<boost::_bi::bind_t<std::basic_string<char, std::char_traits<char>, std::allocator<char> >, boost::_mfi::cmf0<std::basic_string<char, std::char_traits<char>, std::allocator<char> >, pong::User>, boost::_bi::list1<boost::arg<1> > > >::f
FUNC cf6b9 12 0 boost::_bi::unwrapper<bool (*)(const boost::shared_ptr<pong::User>&, const std::basic_string<char, std::char_traits<char>, std::allocator<char> >&, const boost::function<std::basic_string<char, std::char_traits<char>, std::allocator<char> >(const boost::shared_ptr<pong::User>&)>&, pong::MatchCondition)>::unwrap
FUNC cf6cc 1e 0 boost::_bi::list1<const boost::shared_ptr<pong::User>&>::operator[]<std::basic_string<char> >
FUNC cf6ea 1e 0 boost::_bi::list1<const boost::shared_ptr<pong::User>&>::operator[]<boost::function<std::basic_string<char>(const boost::shared_ptr<pong::User>&)> >
FUNC cf708 19 0 boost::detail::addr_impl_ref<boost::_bi::bind_t<bool, bool (*)(const boost::shared_ptr<pong::User>&, const std::basic_string<char, std::char_traits<char>, std::allocator<char> >&, const boost::function<std::basic_string<char, std::char_traits<char>, std::allocator<char> >(const boost::shared_ptr<pong::User>&)>&, pong::MatchCondition), boost::_bi::list4<boost::arg<1>, boost::_bi::value<std::basic_string<char, std::char_traits<char>, std::allocator<char> > >, boost::_bi::value<boost::function<std::basic_string<char, std::char_traits<char>, std::allocator<char> >(const boost::shared_ptr<pong::User>&)> >, boost::_bi::value<pong::MatchCondition> > > >::addr_impl_ref
FUNC cf722 11 0 boost::detail::addr_impl_ref<boost::_bi::bind_t<bool, bool (*)(const boost::shared_ptr<pong::User>&, const std::basic_string<char, std::char_traits<char>, std::allocator<char> >&, const boost::function<std::basic_string<char, std::char_traits<char>, std::allocator<char> >(const boost::shared_ptr<pong::User>&)>&, pong::MatchCondition), boost::_bi::list4<boost::arg<1>, boost::_bi::value<std::basic_string<char, std::char_traits<char>, std::allocator<char> > >, boost::_bi::value<boost::function<std::basic_string<char, std::char_traits<char>, std::allocator<char> >(const boost::shared_ptr<pong::User>&)> >, boost::_bi::value<pong::MatchCondition> > > >::operator boost::_bi::bind_t<bool, bool (*)(const boost::shared_ptr<pong::User>&, const std::basic_string<char>&, const boost::function<std::basic_string<char>(const boost::shared_ptr<pong::User>&)>&, pong::MatchCondition), boost::_bi::list4<boost::arg<1>, boost::_bi::value<std::basic_string<char> >, boost::_bi::value<boost::function<std::basic_string<char>(const boost::shared_ptr<pong::User>&)> >, boost::_bi::value<pong::MatchCondition> > >&
FUNC cf733 12 0 boost::detail::addressof_impl<boost::_bi::bind_t<bool, bool (*)(const boost::shared_ptr<pong::User>&, const std::basic_string<char, std::char_traits<char>, std::allocator<char> >&, const boost::function<std::basic_string<char, std::char_traits<char>, std::allocator<char> >(const boost::shared_ptr<pong::User>&)>&, pong::MatchCondition), boost::_bi::list4<boost::arg<1>, boost::_bi::value<std::basic_string<char, std::char_traits<char>, std::allocator<char> > >, boost::_bi::value<boost::function<std::basic_string<char, std::char_traits<char>, std::allocator<char> >(const boost::shared_ptr<pong::User>&)> >, boost::_bi::value<pong::MatchCondition> > > >::f
FUNC cf745 fd 0 boost::detail::function::functor_manager_common<boost::_bi::bind_t<boost::shared_ptr<pong::Character>, boost::_mfi::cmf0<boost::shared_ptr<pong::Character>, pong::User>, boost::_bi::list1<boost::arg<1> > > >::manage_small
FUNC cf842 12 0 boost::_bi::unwrapper<boost::_mfi::cmf0<boost::shared_ptr<pong::Character>, pong::User> >::unwrap
FUNC cf854 3a 0 boost::_mfi::cmf0<boost::shared_ptr<pong::Character>, pong::User>::operator()<boost::shared_ptr<pong::User> >
FUNC cf88e 19 0 boost::detail::addr_impl_ref<boost::_bi::bind_t<boost::shared_ptr<pong::Character>, boost::_mfi::cmf0<boost::shared_ptr<pong::Character>, pong::User>, boost::_bi::list1<boost::arg<1> > > >::addr_impl_ref
FUNC cf8a8 11 0 boost::detail::addr_impl_ref<boost::_bi::bind_t<boost::shared_ptr<pong::Character>, boost::_mfi::cmf0<boost::shared_ptr<pong::Character>, pong::User>, boost::_bi::list1<boost::arg<1> > > >::operator boost::_bi::bind_t<boost::shared_ptr<pong::Character>, boost::_mfi::cmf0<boost::shared_ptr<pong::Character>, pong::User>, boost::_bi::list1<boost::arg<1> > >&
FUNC cf8b9 12 0 boost::detail::addressof_impl<boost::_bi::bind_t<boost::shared_ptr<pong::Character>, boost::_mfi::cmf0<boost::shared_ptr<pong::Character>, pong::User>, boost::_bi::list1<boost::arg<1> > > >::f
FUNC cf8cb 12 0 boost::_bi::unwrapper<bool (*)(const boost::shared_ptr<pong::User>&, const boost::function<bool(const boost::shared_ptr<pong::Character>&)>&, const boost::function<boost::shared_ptr<pong::Character>(const boost::shared_ptr<pong::User>&)>&)>::unwrap
FUNC cf8de 1e 0 boost::_bi::list1<const boost::shared_ptr<pong::User>&>::operator[]<boost::function<bool(const boost::shared_ptr<pong::Character>&)> >
FUNC cf8fc 1e 0 boost::_bi::list1<const boost::shared_ptr<pong::User>&>::operator[]<boost::function<boost::shared_ptr<pong::Character>(const boost::shared_ptr<pong::User>&)> >
FUNC cf91a 19 0 boost::detail::addr_impl_ref<boost::_bi::bind_t<bool, bool (*)(const boost::shared_ptr<pong::User>&, const boost::function<bool(const boost::shared_ptr<pong::Character>&)>&, const boost::function<boost::shared_ptr<pong::Character>(const boost::shared_ptr<pong::User>&)>&), boost::_bi::list3<boost::arg<1>, boost::_bi::value<boost::function<bool(const boost::shared_ptr<pong::Character>&)> >, boost::_bi::value<boost::function<boost::shared_ptr<pong::Character>(const boost::shared_ptr<pong::User>&)> > > > >::addr_impl_ref
FUNC cf934 11 0 boost::detail::addr_impl_ref<boost::_bi::bind_t<bool, bool (*)(const boost::shared_ptr<pong::User>&, const boost::function<bool(const boost::shared_ptr<pong::Character>&)>&, const boost::function<boost::shared_ptr<pong::Character>(const boost::shared_ptr<pong::User>&)>&), boost::_bi::list3<boost::arg<1>, boost::_bi::value<boost::function<bool(const boost::shared_ptr<pong::Character>&)> >, boost::_bi::value<boost::function<boost::shared_ptr<pong::Character>(const boost::shared_ptr<pong::User>&)> > > > >::operator boost::_bi::bind_t<bool, bool (*)(const boost::shared_ptr<pong::User>&, const boost::function<bool(const boost::shared_ptr<pong::Character>&)>&, const boost::function<boost::shared_ptr<pong::Character>(const boost::shared_ptr<pong::User>&)>&), boost::_bi::list3<boost::arg<1>, boost::_bi::value<boost::function<bool(const boost::shared_ptr<pong::Character>&)> >, boost::_bi::value<boost::function<boost::shared_ptr<pong::Character>(const boost::shared_ptr<pong::User>&)> > > >&
FUNC cf945 12 0 boost::detail::addressof_impl<boost::_bi::bind_t<bool, bool (*)(const boost::shared_ptr<pong::User>&, const boost::function<bool(const boost::shared_ptr<pong::Character>&)>&, const boost::function<boost::shared_ptr<pong::Character>(const boost::shared_ptr<pong::User>&)>&), boost::_bi::list3<boost::arg<1>, boost::_bi::value<boost::function<bool(const boost::shared_ptr<pong::Character>&)> >, boost::_bi::value<boost::function<boost::shared_ptr<pong::Character>(const boost::shared_ptr<pong::User>&)> > > > >::f
FUNC cf957 fd 0 boost::detail::function::functor_manager_common<boost::_bi::bind_t<long int, boost::_mfi::cmf0<long int, pong::User>, boost::_bi::list1<boost::arg<1> > > >::manage_small
FUNC cfa54 12 0 boost::_bi::unwrapper<boost::_mfi::cmf0<long int, pong::User> >::unwrap
FUNC cfa66 31 0 boost::_mfi::cmf0<long int, pong::User>::operator()<boost::shared_ptr<pong::User> >
FUNC cfa98 19 0 boost::detail::addr_impl_ref<boost::_bi::bind_t<long int, boost::_mfi::cmf0<long int, pong::User>, boost::_bi::list1<boost::arg<1> > > >::addr_impl_ref
FUNC cfab2 11 0 boost::detail::addr_impl_ref<boost::_bi::bind_t<long int, boost::_mfi::cmf0<long int, pong::User>, boost::_bi::list1<boost::arg<1> > > >::operator boost::_bi::bind_t<long int, boost::_mfi::cmf0<long int, pong::User>, boost::_bi::list1<boost::arg<1> > >&
FUNC cfac3 12 0 boost::detail::addressof_impl<boost::_bi::bind_t<long int, boost::_mfi::cmf0<long int, pong::User>, boost::_bi::list1<boost::arg<1> > > >::f
FUNC cfad5 12 0 boost::_bi::unwrapper<bool (*)(const boost::shared_ptr<pong::User>&, long int const&, const boost::function<long int(const boost::shared_ptr<pong::User>&)>&, pong::MatchCondition)>::unwrap
FUNC cfae8 1e 0 boost::_bi::list1<const boost::shared_ptr<pong::User>&>::operator[]<long int>
FUNC cfb06 1e 0 boost::_bi::list1<const boost::shared_ptr<pong::User>&>::operator[]<boost::function<long int(const boost::shared_ptr<pong::User>&)> >
FUNC cfb24 19 0 boost::detail::addr_impl_ref<boost::_bi::bind_t<bool, bool (*)(const boost::shared_ptr<pong::User>&, long int const&, const boost::function<long int(const boost::shared_ptr<pong::User>&)>&, pong::MatchCondition), boost::_bi::list4<boost::arg<1>, boost::_bi::value<long int>, boost::_bi::value<boost::function<long int(const boost::shared_ptr<pong::User>&)> >, boost::_bi::value<pong::MatchCondition> > > >::addr_impl_ref
FUNC cfb3e 11 0 boost::detail::addr_impl_ref<boost::_bi::bind_t<bool, bool (*)(const boost::shared_ptr<pong::User>&, long int const&, const boost::function<long int(const boost::shared_ptr<pong::User>&)>&, pong::MatchCondition), boost::_bi::list4<boost::arg<1>, boost::_bi::value<long int>, boost::_bi::value<boost::function<long int(const boost::shared_ptr<pong::User>&)> >, boost::_bi::value<pong::MatchCondition> > > >::operator boost::_bi::bind_t<bool, bool (*)(const boost::shared_ptr<pong::User>&, long int const&, const boost::function<long int(const boost::shared_ptr<pong::User>&)>&, pong::MatchCondition), boost::_bi::list4<boost::arg<1>, boost::_bi::value<long int>, boost::_bi::value<boost::function<long int(const boost::shared_ptr<pong::User>&)> >, boost::_bi::value<pong::MatchCondition> > >&
FUNC cfb4f 12 0 boost::detail::addressof_impl<boost::_bi::bind_t<bool, bool (*)(const boost::shared_ptr<pong::User>&, long int const&, const boost::function<long int(const boost::shared_ptr<pong::User>&)>&, pong::MatchCondition), boost::_bi::list4<boost::arg<1>, boost::_bi::value<long int>, boost::_bi::value<boost::function<long int(const boost::shared_ptr<pong::User>&)> >, boost::_bi::value<pong::MatchCondition> > > >::f
FUNC cfb61 39 0 std::operator==<std::pair<boost::uuids::uuid, boost::shared_ptr<pong::User> >*>
FUNC cfb9a 39 0 std::operator==<std::pair<std::basic_string<char>, boost::shared_ptr<pong::User> >*>
FUNC cfbd3 1a 0 std::allocator_traits<std::allocator<boost::shared_ptr<pong::User> > >::_S_max_size<const std::allocator<boost::shared_ptr<pong::User> > >
FUNC cfbed ad 0 std::__uninitialized_copy<false>::__uninit_copy<std::move_iterator<boost::shared_ptr<pong::User>*>, boost::shared_ptr<pong::User>*>
FUNC cfc9a e 0 std::__addressof<boost::shared_ptr<pong::User> >
FUNC cfca8 1a 0 std::_Destroy<boost::shared_ptr<pong::User> >
FUNC cfcc2 1a 0 std::allocator_traits<std::allocator<boost::shared_ptr<const fun::AttributeModel> > >::_S_max_size<const std::allocator<boost::shared_ptr<const fun::AttributeModel> > >
FUNC cfcdc ad 0 std::__uninitialized_copy<false>::__uninit_copy<std::move_iterator<boost::shared_ptr<const fun::AttributeModel>*>, boost::shared_ptr<const fun::AttributeModel>*>
FUNC cfd8a a 0 __gnu_cxx::new_allocator<std::_Rb_tree_node<std::pair<const std::basic_string<char, std::char_traits<char>, std::allocator<char> >, boost::shared_ptr<const fun::AttributeModel> > > >::~new_allocator
FUNC cfd94 12 0 std::_Rb_tree<std::basic_string<char, std::char_traits<char>, std::allocator<char> >, std::pair<const std::basic_string<char, std::char_traits<char>, std::allocator<char> >, boost::shared_ptr<const fun::AttributeModel> >, std::_Select1st<std::pair<const std::basic_string<char, std::char_traits<char>, std::allocator<char> >, boost::shared_ptr<const fun::AttributeModel> > >, std::less<std::basic_string<char, std::char_traits<char>, std::allocator<char> > >, std::allocator<std::pair<const std::basic_string<char, std::char_traits<char>, std::allocator<char> >, boost::shared_ptr<const fun::AttributeModel> > > >::_S_right
FUNC cfda6 12 0 std::_Rb_tree<std::basic_string<char, std::char_traits<char>, std::allocator<char> >, std::pair<const std::basic_string<char, std::char_traits<char>, std::allocator<char> >, boost::shared_ptr<const fun::AttributeModel> >, std::_Select1st<std::pair<const std::basic_string<char, std::char_traits<char>, std::allocator<char> >, boost::shared_ptr<const fun::AttributeModel> > >, std::less<std::basic_string<char, std::char_traits<char>, std::allocator<char> > >, std::allocator<std::pair<const std::basic_string<char, std::char_traits<char>, std::allocator<char> >, boost::shared_ptr<const fun::AttributeModel> > > >::_S_left
FUNC cfdb8 40 0 std::_Rb_tree<std::basic_string<char, std::char_traits<char>, std::allocator<char> >, std::pair<const std::basic_string<char, std::char_traits<char>, std::allocator<char> >, boost::shared_ptr<const fun::AttributeModel> >, std::_Select1st<std::pair<const std::basic_string<char, std::char_traits<char>, std::allocator<char> >, boost::shared_ptr<const fun::AttributeModel> > >, std::less<std::basic_string<char, std::char_traits<char>, std::allocator<char> > >, std::allocator<std::pair<const std::basic_string<char, std::char_traits<char>, std::allocator<char> >, boost::shared_ptr<const fun::AttributeModel> > > >::_M_destroy_node
FUNC cfdf8 11 0 boost::detail::variant::destroyer::internal_visit<fun::AttributeValue::kNull>
FUNC cfe0a 11 0 boost::detail::variant::destroyer::internal_visit<bool>
FUNC cfe1c 11 0 boost::detail::variant::destroyer::internal_visit<long int>
FUNC cfe2e 11 0 boost::detail::variant::destroyer::internal_visit<double>
FUNC cfe40 21 0 boost::detail::variant::destroyer::internal_visit<std::basic_string<char> >
FUNC cfe62 11 0 boost::detail::variant::destroyer::internal_visit<boost::uuids::uuid>
FUNC cfe73 1a 0 std::_Iter_base<std::move_iterator<boost::uuids::uuid*>, true>::_S_base
FUNC cfe8d 1a 0 std::__niter_base<boost::uuids::uuid*>
FUNC cfea7 31 0 std::__copy_move_a<true, boost::uuids::uuid*, boost::uuids::uuid*>
FUNC cfed8 6c 0 boost::_mfi::cmf0<const boost::uuids::uuid&, pong::Character>::call<const boost::shared_ptr<pong::Character> >
FUNC cff44 e 0 boost::_bi::value<boost::uuids::uuid>::get
FUNC cff52 e 0 boost::_bi::value<boost::function<boost::uuids::uuid(const boost::shared_ptr<pong::Character>&)> >::get
FUNC cff60 e 0 boost::_bi::value<pong::MatchCondition>::get
FUNC cff6e 7b 0 boost::_mfi::cmf0<std::basic_string<char, std::char_traits<char>, std::allocator<char> >, pong::Character>::call<const boost::shared_ptr<pong::Character> >
FUNC cffea e 0 boost::_bi::value<std::basic_string<char, std::char_traits<char>, std::allocator<char> > >::get
FUNC cfff8 e 0 boost::_bi::value<boost::function<std::basic_string<char, std::char_traits<char>, std::allocator<char> >(const boost::shared_ptr<pong::Character>&)> >::get
FUNC d0006 6c 0 boost::_mfi::cmf0<long int, pong::Character>::call<const boost::shared_ptr<pong::Character> >
FUNC d0072 e 0 boost::_bi::value<long int>::get
FUNC d0080 e 0 boost::_bi::value<boost::function<long int(const boost::shared_ptr<pong::Character>&)> >::get
FUNC d008e 32 0 std::pair<const std::basic_string<char, std::char_traits<char>, std::allocator<char> >, boost::shared_ptr<fun::AttributeValue> >::pair<std::basic_string<char, std::char_traits<char>, std::allocator<char> >&&>
FUNC d00c0 11 0 std::move_iterator<std::pair<boost::uuids::uuid, boost::shared_ptr<fun::Object> >*>::base
FUNC d00d2 11 0 std::move_iterator<std::pair<boost::uuids::uuid, boost::shared_ptr<pong::Character> >*>::base
FUNC d00e4 11 0 std::move_iterator<boost::shared_ptr<fun::AttributeValue>*>::base
FUNC d00f6 11 0 std::move_iterator<std::pair<std::basic_string<char, std::char_traits<char>, std::allocator<char> >, boost::shared_ptr<pong::Character> >*>::base
FUNC d0107 28 0 std::operator!=<boost::shared_ptr<pong::Character>*>
FUNC d0130 20 0 std::move_iterator<boost::shared_ptr<pong::Character>*>::operator++
FUNC d0150 1d 0 std::move_iterator<boost::shared_ptr<pong::Character>*>::operator*
FUNC d016d 48 0 std::_Construct<boost::shared_ptr<pong::Character>, boost::shared_ptr<pong::Character> >
FUNC d01b6 6c 0 boost::_mfi::cmf0<const boost::uuids::uuid&, pong::User>::call<const boost::shared_ptr<pong::User> >
FUNC d0222 e 0 boost::_bi::value<boost::function<boost::uuids::uuid(const boost::shared_ptr<pong::User>&)> >::get
FUNC d0230 7b 0 boost::_mfi::cmf0<std::basic_string<char, std::char_traits<char>, std::allocator<char> >, pong::User>::call<const boost::shared_ptr<pong::User> >
FUNC d02ac e 0 boost::_bi::value<boost::function<std::basic_string<char, std::char_traits<char>, std::allocator<char> >(const boost::shared_ptr<pong::User>&)> >::get
FUNC d02ba 7b 0 boost::_mfi::cmf0<boost::shared_ptr<pong::Character>, pong::User>::call<const boost::shared_ptr<pong::User> >
FUNC d0336 e 0 boost::_bi::value<boost::function<bool(const boost::shared_ptr<pong::Character>&)> >::get
FUNC d0344 e 0 boost::_bi::value<boost::function<boost::shared_ptr<pong::Character>(const boost::shared_ptr<pong::User>&)> >::get
FUNC d0352 6c 0 boost::_mfi::cmf0<long int, pong::User>::call<const boost::shared_ptr<pong::User> >
FUNC d03be e 0 boost::_bi::value<boost::function<long int(const boost::shared_ptr<pong::User>&)> >::get
FUNC d03cc 11 0 std::move_iterator<std::pair<boost::uuids::uuid, boost::shared_ptr<pong::User> >*>::base
FUNC d03de 11 0 std::move_iterator<std::pair<std::basic_string<char, std::char_traits<char>, std::allocator<char> >, boost::shared_ptr<pong::User> >*>::base
FUNC d03ef 28 0 std::operator!=<boost::shared_ptr<pong::User>*>
FUNC d0418 20 0 std::move_iterator<boost::shared_ptr<pong::User>*>::operator++
FUNC d0438 1d 0 std::move_iterator<boost::shared_ptr<pong::User>*>::operator*
FUNC d0455 48 0 std::_Construct<boost::shared_ptr<pong::User>, boost::shared_ptr<pong::User> >
FUNC d049d 28 0 std::operator!=<boost::shared_ptr<const fun::AttributeModel>*>
FUNC d04c6 20 0 std::move_iterator<boost::shared_ptr<const fun::AttributeModel>*>::operator++
FUNC d04e6 1d 0 std::move_iterator<boost::shared_ptr<const fun::AttributeModel>*>::operator*
FUNC d0503 48 0 std::_Construct<boost::shared_ptr<const fun::AttributeModel>, boost::shared_ptr<const fun::AttributeModel> >
FUNC d054c e 0 std::_Rb_tree<std::basic_string<char, std::char_traits<char>, std::allocator<char> >, std::pair<const std::basic_string<char, std::char_traits<char>, std::allocator<char> >, boost::shared_ptr<const fun::AttributeModel> >, std::_Select1st<std::pair<const std::basic_string<char, std::char_traits<char>, std::allocator<char> >, boost::shared_ptr<const fun::AttributeModel> > >, std::less<std::basic_string<char, std::char_traits<char>, std::allocator<char> > >, std::allocator<std::pair<const std::basic_string<char, std::char_traits<char>, std::allocator<char> >, boost::shared_ptr<const fun::AttributeModel> > > >::_M_get_Node_allocator
FUNC d055a 2a 0 std::pair<const std::basic_string<char, std::char_traits<char>, std::allocator<char> >, boost::shared_ptr<const fun::AttributeModel> >::~pair
FUNC d0584 1e 0 std::_Rb_tree_node<std::pair<const std::basic_string<char, std::char_traits<char>, std::allocator<char> >, boost::shared_ptr<const fun::AttributeModel> > >::~_Rb_tree_node
FUNC d05a2 1e 0 __gnu_cxx::new_allocator<std::_Rb_tree_node<std::pair<const std::basic_string<char, std::char_traits<char>, std::allocator<char> >, boost::shared_ptr<const fun::AttributeModel> > > >::destroy<std::_Rb_tree_node<std::pair<const std::basic_string<char>, boost::shared_ptr<const fun::AttributeModel> > > >
FUNC d05c0 2a 0 std::_Rb_tree<std::basic_string<char, std::char_traits<char>, std::allocator<char> >, std::pair<const std::basic_string<char, std::char_traits<char>, std::allocator<char> >, boost::shared_ptr<const fun::AttributeModel> >, std::_Select1st<std::pair<const std::basic_string<char, std::char_traits<char>, std::allocator<char> >, boost::shared_ptr<const fun::AttributeModel> > >, std::less<std::basic_string<char, std::char_traits<char>, std::allocator<char> > >, std::allocator<std::pair<const std::basic_string<char, std::char_traits<char>, std::allocator<char> >, boost::shared_ptr<const fun::AttributeModel> > > >::_M_put_node
FUNC d05ea 11 0 std::move_iterator<boost::uuids::uuid*>::base
FUNC d05fb e 0 std::_Iter_base<boost::uuids::uuid*, false>::_S_base
FUNC d0609 63 0 std::__copy_move<true, true, std::random_access_iterator_tag>::__copy_m<boost::uuids::uuid>
FUNC d066c 1a 0 boost::get_pointer<pong::Character>
FUNC d0686 1a 0 std::__get_helper<0ul, std::basic_string<char>&&>
FUNC d06a0 1a 0 std::get<0ul, std::basic_string<char, std::char_traits<char>, std::allocator<char> >&&>
FUNC d06ba 4c 0 std::pair<const std::basic_string<char, std::char_traits<char>, std::allocator<char> >, boost::shared_ptr<fun::AttributeValue> >::pair<std::basic_string<char, std::char_traits<char>, std::allocator<char> >&&, 0ul>
FUNC d0706 39 0 std::operator==<boost::shared_ptr<pong::Character>*>
FUNC d073f 1a 0 boost::get_pointer<pong::User>
FUNC d0759 39 0 std::operator==<boost::shared_ptr<pong::User>*>
FUNC d0792 39 0 std::operator==<boost::shared_ptr<const fun::AttributeModel>*>
FUNC d07cc 22 0 __gnu_cxx::new_allocator<std::_Rb_tree_node<std::pair<const std::basic_string<char, std::char_traits<char>, std::allocator<char> >, boost::shared_ptr<const fun::AttributeModel> > > >::deallocate
FUNC d07ee 11 0 boost::shared_ptr<pong::Character>::get
FUNC d0800 29 0 boost::shared_ptr<fun::AttributeValue>::shared_ptr
FUNC d082a 11 0 std::move_iterator<boost::shared_ptr<pong::Character>*>::base
FUNC d083c 11 0 boost::shared_ptr<pong::User>::get
FUNC d084e 11 0 std::move_iterator<boost::shared_ptr<pong::User>*>::base
FUNC d0860 11 0 std::move_iterator<boost::shared_ptr<const fun::AttributeModel>*>::base
FUNC d0872 41 0 boost::detail::sp_counted_impl_p<boost::exception_detail::clone_impl<boost::exception_detail::bad_exception_> >::~sp_counted_impl_p
FUNC d08b4 26 0 boost::detail::sp_counted_impl_p<boost::exception_detail::clone_impl<boost::exception_detail::bad_exception_> >::~sp_counted_impl_p
FUNC d08da 41 0 boost::detail::sp_counted_impl_p<boost::exception_detail::clone_impl<boost::exception_detail::bad_alloc_> >::~sp_counted_impl_p
FUNC d091c 26 0 boost::detail::sp_counted_impl_p<boost::exception_detail::clone_impl<boost::exception_detail::bad_alloc_> >::~sp_counted_impl_p
FUNC d0942 41 0 boost::detail::sp_counted_impl_p<fun::ObjectModel>::~sp_counted_impl_p
FUNC d0984 26 0 boost::detail::sp_counted_impl_p<fun::ObjectModel>::~sp_counted_impl_p
FUNC d09aa 41 0 boost::detail::sp_counted_impl_p<fun::AttributeModel>::~sp_counted_impl_p
FUNC d09ec 26 0 boost::detail::sp_counted_impl_p<fun::AttributeModel>::~sp_counted_impl_p
FUNC d0a12 41 0 boost::detail::sp_counted_impl_p<pong::User>::~sp_counted_impl_p
FUNC d0a54 26 0 boost::detail::sp_counted_impl_p<pong::User>::~sp_counted_impl_p
FUNC d0a7a 41 0 boost::detail::sp_counted_impl_p<pong::User::OpaqueData>::~sp_counted_impl_p
FUNC d0abc 26 0 boost::detail::sp_counted_impl_p<pong::User::OpaqueData>::~sp_counted_impl_p
FUNC d0ae2 41 0 boost::detail::sp_counted_impl_p<fun::AttributeValue>::~sp_counted_impl_p
FUNC d0b24 26 0 boost::detail::sp_counted_impl_p<fun::AttributeValue>::~sp_counted_impl_p
FUNC d0b4a 41 0 boost::detail::sp_counted_impl_p<pong::Character>::~sp_counted_impl_p
FUNC d0b8c 26 0 boost::detail::sp_counted_impl_p<pong::Character>::~sp_counted_impl_p
FUNC d0bb2 41 0 boost::detail::sp_counted_impl_p<pong::Character::OpaqueData>::~sp_counted_impl_p
FUNC d0bf4 26 0 boost::detail::sp_counted_impl_p<pong::Character::OpaqueData>::~sp_counted_impl_p
FUNC d0c1a 41 0 boost::asio::error::detail::misc_category::~misc_category
FUNC d0c5c 26 0 boost::asio::error::detail::misc_category::~misc_category
FUNC d0c82 41 0 boost::asio::error::detail::addrinfo_category::~addrinfo_category
FUNC d0cc4 26 0 boost::asio::error::detail::addrinfo_category::~addrinfo_category
FUNC d0cea 41 0 boost::asio::error::detail::netdb_category::~netdb_category
FUNC d0d2c 26 0 boost::asio::error::detail::netdb_category::~netdb_category
FUNC d0d52 1e 0 boost::weak_ptr<pong::Character>::~weak_ptr
FUNC d0d70 1e 0 boost::weak_ptr<pong::User>::~weak_ptr
FUNC d0d8e 1a 0 boost::asio::detail::tss_ptr<boost::asio::detail::call_stack<boost::asio::detail::task_io_service, boost::asio::detail::task_io_service_thread_info>::context>::~tss_ptr
FUNC d0da8 1a 0 boost::asio::detail::service_id<boost::asio::detail::epoll_reactor>::~service_id
FUNC d0dc2 1a 0 boost::asio::detail::service_id<boost::asio::detail::task_io_service>::~service_id
FUNC d0ddc 1a 0 boost::asio::detail::tss_ptr<boost::asio::detail::call_stack<boost::asio::detail::strand_service::strand_impl>::context>::~tss_ptr
FUNC d0df6 1a 0 boost::asio::detail::service_id<boost::asio::detail::strand_service>::~service_id
FUNC d0e10 1e 0 boost::detail::sp_counted_impl_p<boost::exception_detail::clone_impl<boost::exception_detail::bad_exception_> >::dispose
FUNC d0e2e 13 0 boost::detail::sp_counted_impl_p<boost::exception_detail::clone_impl<boost::exception_detail::bad_exception_> >::get_deleter
FUNC d0e42 f 0 boost::detail::sp_counted_impl_p<boost::exception_detail::clone_impl<boost::exception_detail::bad_exception_> >::get_untyped_deleter
FUNC d0e52 1e 0 boost::detail::sp_counted_impl_p<boost::exception_detail::clone_impl<boost::exception_detail::bad_alloc_> >::dispose
FUNC d0e70 13 0 boost::detail::sp_counted_impl_p<boost::exception_detail::clone_impl<boost::exception_detail::bad_alloc_> >::get_deleter
FUNC d0e84 f 0 boost::detail::sp_counted_impl_p<boost::exception_detail::clone_impl<boost::exception_detail::bad_alloc_> >::get_untyped_deleter
FUNC d0e94 1e 0 boost::detail::sp_counted_impl_p<fun::ObjectModel>::dispose
FUNC d0eb2 13 0 boost::detail::sp_counted_impl_p<fun::ObjectModel>::get_deleter
FUNC d0ec6 f 0 boost::detail::sp_counted_impl_p<fun::ObjectModel>::get_untyped_deleter
FUNC d0ed6 1e 0 boost::detail::sp_counted_impl_p<fun::AttributeModel>::dispose
FUNC d0ef4 13 0 boost::detail::sp_counted_impl_p<fun::AttributeModel>::get_deleter
FUNC d0f08 f 0 boost::detail::sp_counted_impl_p<fun::AttributeModel>::get_untyped_deleter
FUNC d0f18 1e 0 boost::detail::sp_counted_impl_p<pong::User>::dispose
FUNC d0f36 13 0 boost::detail::sp_counted_impl_p<pong::User>::get_deleter
FUNC d0f4a f 0 boost::detail::sp_counted_impl_p<pong::User>::get_untyped_deleter
FUNC d0f5a 1e 0 boost::detail::sp_counted_impl_p<pong::User::OpaqueData>::dispose
FUNC d0f78 13 0 boost::detail::sp_counted_impl_p<pong::User::OpaqueData>::get_deleter
FUNC d0f8c f 0 boost::detail::sp_counted_impl_p<pong::User::OpaqueData>::get_untyped_deleter
FUNC d0f9c 1e 0 boost::detail::sp_counted_impl_p<fun::AttributeValue>::dispose
FUNC d0fba 13 0 boost::detail::sp_counted_impl_p<fun::AttributeValue>::get_deleter
FUNC d0fce f 0 boost::detail::sp_counted_impl_p<fun::AttributeValue>::get_untyped_deleter
FUNC d0fde 1e 0 boost::detail::sp_counted_impl_p<pong::Character>::dispose
FUNC d0ffc 13 0 boost::detail::sp_counted_impl_p<pong::Character>::get_deleter
FUNC d1010 f 0 boost::detail::sp_counted_impl_p<pong::Character>::get_untyped_deleter
FUNC d1020 1e 0 boost::detail::sp_counted_impl_p<pong::Character::OpaqueData>::dispose
FUNC d103e 13 0 boost::detail::sp_counted_impl_p<pong::Character::OpaqueData>::get_deleter
FUNC d1052 f 0 boost::detail::sp_counted_impl_p<pong::Character::OpaqueData>::get_untyped_deleter
FUNC d1062 6f 0 boost::exception_detail::clone_impl<boost::exception_detail::error_info_injector<boost::bad_function_call> >::clone
FUNC d10da 5d 0 boost::exception_detail::clone_impl<boost::exception_detail::error_info_injector<boost::bad_function_call> >::rethrow
FUNC d1140 6f 0 boost::exception_detail::clone_impl<boost::exception_detail::bad_exception_>::clone
FUNC d11b8 5d 0 boost::exception_detail::clone_impl<boost::exception_detail::bad_exception_>::rethrow
FUNC d121e 6f 0 boost::exception_detail::clone_impl<boost::exception_detail::bad_alloc_>::clone
FUNC d1296 5d 0 boost::exception_detail::clone_impl<boost::exception_detail::bad_alloc_>::rethrow
FUNC d12fc c9 0 boost::exception_detail::clone_impl<boost::exception_detail::error_info_injector<boost::bad_function_call> >::clone_impl
FUNC d13c6 c1 0 boost::exception_detail::clone_impl<boost::exception_detail::bad_exception_>::clone_impl
FUNC d1488 c1 0 boost::exception_detail::clone_impl<boost::exception_detail::bad_alloc_>::clone_impl
FUNC d1549 541 0 logger::SessionOpened
FUNC d1a8a 541 0 logger::SessionClosed
FUNC d1fcb 5b7 0 logger::PlayerLoggedIn
FUNC d2582 301 0 __static_initialization_and_destruction_0
FUNC d2883 15 0 _GLOBAL__sub_I_pong_loggers.cc
FUNC d2898 b 0 std::numeric_limits<unsigned int>::min
FUNC d28a3 b 0 std::numeric_limits<unsigned int>::max
FUNC d28ae 10 0 std::numeric_limits<long int>::min
FUNC d28be 10 0 std::numeric_limits<long int>::max
FUNC d28ce 29 0 std::_Bit_reference::_Bit_reference
FUNC d28f8 5c 0 std::_Bit_reference::operator=
FUNC d2954 a 0 std::iterator<std::random_access_iterator_tag, bool, long int, bool*, bool&>::iterator
FUNC d295e 36 0 std::_Bit_iterator_base::_Bit_iterator_base
FUNC d2994 42 0 std::_Bit_iterator_base::_M_bump_up
FUNC d29d6 8c 0 std::_Bit_iterator_base::_M_incr
FUNC d2a62 24 0 std::_Bit_iterator::_Bit_iterator
FUNC d2a86 2b 0 std::_Bit_iterator::_Bit_iterator
FUNC d2ab2 3d 0 std::_Bit_iterator::operator*
FUNC d2af0 1e 0 std::_Bit_iterator::operator++
FUNC d2b0e 29 0 std::_Bit_iterator::operator+=
FUNC d2b38 4f 0 std::_Bit_iterator::operator+
FUNC d2b87 1a 0 boost::date_time::time_resolution_traits_adapted64_impl::as_number
FUNC d2ba1 b 0 boost::date_time::time_resolution_traits_adapted64_impl::is_adapted
FUNC d2bac a1 0 boost::gregorian::bad_day_of_month::bad_day_of_month
FUNC d2c4e 37 0 boost::gregorian::bad_day_of_month::bad_day_of_month
FUNC d2c86 26 0 boost::gregorian::greg_day::greg_day
FUNC d2cac 11 0 boost::gregorian::greg_day::operator short unsigned int
FUNC d2cbe a1 0 boost::gregorian::bad_year::bad_year
FUNC d2d60 26 0 boost::gregorian::greg_year::greg_year
FUNC d2d86 11 0 boost::gregorian::greg_year::operator short unsigned int
FUNC d2d98 a1 0 boost::gregorian::bad_month::bad_month
FUNC d2e3a 26 0 boost::gregorian::greg_month::greg_month
FUNC d2e60 11 0 boost::gregorian::greg_month::operator short unsigned int
FUNC d2e72 11 0 boost::gregorian::greg_month::as_number
FUNC d2e84 df 0 boost::gregorian::date::date
FUNC d2f64 25 0 boost::gregorian::date::date
FUNC d2f8a df 0 boost::gregorian::date::date
FUNC d306a 37 0 boost::posix_time::time_duration::time_duration
FUNC d30a2 22 0 boost::posix_time::time_duration::time_duration
FUNC d30c4 29 0 std::__deque_buf_size
FUNC d30ed c 0 std::setw
FUNC d30f9 29 0 boost::posix_time::to_iso_string
FUNC d3122 1a 0 boost::assign_detail::generic_list<char [11]>::~generic_list
FUNC d313c 1a 0 boost::assign_detail::generic_list<fun::LogColumnCppType>::~generic_list
FUNC d3156 1a 0 boost::assign_detail::generic_list<bool>::~generic_list
FUNC d3170 11 0 boost::date_time::int_adapter<long int>::as_number
FUNC d3182 32 0 boost::CV::constrained_value<boost::CV::simple_exception_policy<short unsigned int, 1u, 31u, boost::gregorian::bad_day_of_month> >::constrained_value
FUNC d31b4 32 0 boost::CV::constrained_value<boost::CV::simple_exception_policy<short unsigned int, 1400u, 10000u, boost::gregorian::bad_year> >::constrained_value
FUNC d31e6 32 0 boost::CV::constrained_value<boost::CV::simple_exception_policy<short unsigned int, 1u, 12u, boost::gregorian::bad_month> >::constrained_value
FUNC d3218 60 0 boost::date_time::int_adapter<unsigned int>::from_special
FUNC d3278 a 0 boost::detail::empty_base<boost::gregorian::date>::empty_base
FUNC d3282 1a 0 boost::equality_comparable1<boost::gregorian::date, boost::detail::empty_base<boost::gregorian::date> >::equality_comparable1
FUNC d329c 1a 0 boost::equality_comparable<boost::gregorian::date, boost::gregorian::date, boost::detail::empty_base<boost::gregorian::date>, boost::detail::false_t>::equality_comparable
FUNC d32b6 1a 0 boost::less_than_comparable1<boost::gregorian::date, boost::equality_comparable<boost::gregorian::date, boost::gregorian::date, boost::detail::empty_base<boost::gregorian::date>, boost::detail::false_t> >::less_than_comparable1
FUNC d32d0 1a 0 boost::less_than_comparable<boost::gregorian::date, boost::equality_comparable<boost::gregorian::date, boost::gregorian::date, boost::detail::empty_base<boost::gregorian::date>, boost::detail::false_t>, boost::detail::empty_base<boost::gregorian::date>, boost::detail::true_t>::less_than_comparable
FUNC d32ea 2f 0 boost::date_time::date<boost::gregorian::date, boost::gregorian::gregorian_calendar, boost::gregorian::date_duration>::date
FUNC d331a 50 0 boost::date_time::date<boost::gregorian::date, boost::gregorian::gregorian_calendar, boost::gregorian::date_duration>::date
FUNC d336a 72 0 boost::date_time::gregorian_calendar_base<boost::date_time::year_month_day_base<boost::gregorian::greg_year, boost::gregorian::greg_month, boost::gregorian::greg_day>, unsigned int>::end_of_month_day
FUNC d33dc 74 0 std::logic_error::logic_error
FUNC d3450 37 0 std::out_of_range::out_of_range
FUNC d3488 37 0 boost::gregorian::bad_day_of_month::bad_day_of_month
FUNC d34c0 41 0 boost::gregorian::bad_day_of_month::~bad_day_of_month
FUNC d3502 26 0 boost::gregorian::bad_day_of_month::~bad_day_of_month
FUNC d3528 87 0 boost::exception_detail::error_info_injector<boost::gregorian::bad_day_of_month>::error_info_injector
FUNC d35b0 b8 0 boost::exception_detail::clone_impl<boost::exception_detail::error_info_injector<boost::gregorian::bad_day_of_month> >::clone_impl
FUNC d3668 99 0 boost::throw_exception<boost::gregorian::bad_day_of_month>
FUNC d3702 30 0 boost::date_time::date<boost::gregorian::date, boost::gregorian::gregorian_calendar, boost::gregorian::date_duration>::date
FUNC d3732 87 0 boost::date_time::date<boost::gregorian::date, boost::gregorian::gregorian_calendar, boost::gregorian::date_duration>::year_month_day
FUNC d37ba a 0 boost::detail::empty_base<boost::posix_time::time_duration>::empty_base
FUNC d37c4 1a 0 boost::equality_comparable1<boost::posix_time::time_duration, boost::detail::empty_base<boost::posix_time::time_duration> >::equality_comparable1
FUNC d37de 1a 0 boost::equality_comparable<boost::posix_time::time_duration, boost::posix_time::time_duration, boost::detail::empty_base<boost::posix_time::time_duration>, boost::detail::false_t>::equality_comparable
FUNC d37f8 1a 0 boost::less_than_comparable1<boost::posix_time::time_duration, boost::equality_comparable<boost::posix_time::time_duration, boost::posix_time::time_duration, boost::detail::empty_base<boost::posix_time::time_duration>, boost::detail::false_t> >::less_than_comparable1
FUNC d3812 1a 0 boost::less_than_comparable<boost::posix_time::time_duration, boost::equality_comparable<boost::posix_time::time_duration, boost::posix_time::time_duration, boost::detail::empty_base<boost::posix_time::time_duration>, boost::detail::false_t>, boost::detail::empty_base<boost::posix_time::time_duration>, boost::detail::true_t>::less_than_comparable
FUNC d382c 4d 0 boost::date_time::time_duration<boost::posix_time::time_duration, boost::date_time::time_resolution_traits<boost::date_time::time_resolution_traits_adapted64_impl, (boost::date_time::time_resolutions)5u, 1000000l, 6u, int> >::time_duration
FUNC d387a 34 0 boost::date_time::time_duration<boost::posix_time::time_duration, boost::date_time::time_resolution_traits<boost::date_time::time_resolution_traits_adapted64_impl, (boost::date_time::time_resolutions)5u, 1000000l, 6u, int> >::time_duration
FUNC d38ae 1a 0 boost::date_time::base_time<boost::posix_time::ptime, boost::date_time::counted_time_system<boost::date_time::counted_time_rep<boost::posix_time::millisec_posix_time_system_config> > >::date
FUNC d38c8 29 0 boost::date_time::base_time<boost::posix_time::ptime, boost::date_time::counted_time_system<boost::date_time::counted_time_rep<boost::posix_time::millisec_posix_time_system_config> > >::time_of_day
FUNC d38f2 37 0 boost::date_time::time_duration<boost::posix_time::time_duration, boost::date_time::time_resolution_traits<boost::date_time::time_resolution_traits_adapted64_impl, (boost::date_time::time_resolutions)5u, 1000000l, 6u, int> >::hours
FUNC d392a 80 0 boost::date_time::time_duration<boost::posix_time::time_duration, boost::date_time::time_resolution_traits<boost::date_time::time_resolution_traits_adapted64_impl, (boost::date_time::time_resolutions)5u, 1000000l, 6u, int> >::minutes
FUNC d39aa 72 0 boost::date_time::time_duration<boost::posix_time::time_duration, boost::date_time::time_resolution_traits<boost::date_time::time_resolution_traits_adapted64_impl, (boost::date_time::time_resolutions)5u, 1000000l, 6u, int> >::seconds
FUNC d3a1c 14 0 boost::date_time::absolute_value<int>
FUNC d3a30 39 0 boost::date_time::time_duration<boost::posix_time::time_duration, boost::date_time::time_resolution_traits<boost::date_time::time_resolution_traits_adapted64_impl, (boost::date_time::time_resolutions)5u, 1000000l, 6u, int> >::fractional_seconds
FUNC d3a69 b 0 boost::date_time::time_duration<boost::posix_time::time_duration, boost::date_time::time_resolution_traits<boost::date_time::time_resolution_traits_adapted64_impl, (boost::date_time::time_resolutions)5u, 1000000l, 6u, int> >::ticks_per_second
FUNC d3a74 28 0 boost::gregorian::to_iso_string_type<char>
FUNC d3a9c 303 0 boost::posix_time::to_iso_string_type<char>
FUNC d3d9f 133 0 boost::posix_time::to_iso_string_type<char>
FUNC d3ed2 a 0 boost::assign_detail::converter<boost::assign_detail::generic_list<char const*>, std::_Deque_iterator<char const*, char const*&, char const**> >::converter
FUNC d3edc 26 0 boost::assign_detail::generic_list<char [11]>::generic_list
FUNC d3f02 25 0 boost::assign_detail::generic_list<char [11]>::generic_list
FUNC d3f27 94 0 boost::assign::list_of<char [11]>
FUNC d3fbc 6c 0 std::deque<char const*, std::allocator<char const*> >::~deque
FUNC d4028 2c 0 boost::assign_detail::generic_list<char [11]>::operator()
FUNC d4054 29 0 boost::assign_detail::generic_list<char [11]>::operator std::vector<std::basic_string<char> ><std::vector<std::basic_string<char> > >
FUNC d407e 43 0 std::vector<std::basic_string<char, std::char_traits<char>, std::allocator<char> >, std::allocator<std::basic_string<char, std::char_traits<char>, std::allocator<char> > > >::~vector
FUNC d40c2 a 0 boost::assign_detail::converter<boost::assign_detail::generic_list<fun::LogColumnCppType>, std::_Deque_iterator<fun::LogColumnCppType, fun::LogColumnCppType&, fun::LogColumnCppType*> >::converter
FUNC d40cc 26 0 boost::assign_detail::generic_list<fun::LogColumnCppType>::generic_list
FUNC d40f2 25 0 boost::assign_detail::generic_list<fun::LogColumnCppType>::generic_list
FUNC d4117 8c 0 boost::assign::list_of<fun::LogColumnCppType>
FUNC d41a4 6c 0 std::deque<fun::LogColumnCppType, std::allocator<fun::LogColumnCppType> >::~deque
FUNC d4210 2a 0 boost::assign_detail::generic_list<fun::LogColumnCppType>::operator()
FUNC d423a 29 0 boost::assign_detail::generic_list<fun::LogColumnCppType>::operator std::vector<fun::LogColumnCppType><std::vector<fun::LogColumnCppType> >
FUNC d4264 43 0 std::vector<fun::LogColumnCppType, std::allocator<fun::LogColumnCppType> >::~vector
FUNC d42a8 a 0 boost::assign_detail::converter<boost::assign_detail::generic_list<bool>, std::_Deque_iterator<bool, bool&, bool*> >::converter
FUNC d42b2 26 0 boost::assign_detail::generic_list<bool>::generic_list
FUNC d42d8 25 0 boost::assign_detail::generic_list<bool>::generic_list
FUNC d42fd 8c 0 boost::assign::list_of<bool>
FUNC d438a 6c 0 std::deque<bool, std::allocator<bool> >::~deque
FUNC d43f6 2e 0 boost::assign_detail::generic_list<bool>::operator()
FUNC d4424 29 0 boost::assign_detail::generic_list<bool>::operator std::vector<bool><std::vector<bool> >
FUNC d444e 1a 0 std::vector<bool, std::allocator<bool> >::~vector
FUNC d4468 1a 0 std::vector<std::basic_string<char, std::char_traits<char>, std::allocator<char> >, std::allocator<std::basic_string<char, std::char_traits<char>, std::allocator<char> > > >::vector
FUNC d4482 6b 0 std::vector<std::basic_string<char, std::char_traits<char>, std::allocator<char> >, std::allocator<std::basic_string<char, std::char_traits<char>, std::allocator<char> > > >::push_back
FUNC d44ee 30 0 std::vector<std::basic_string<char, std::char_traits<char>, std::allocator<char> >, std::allocator<std::basic_string<char, std::char_traits<char>, std::allocator<char> > > >::push_back
FUNC d451e b 0 boost::CV::constrained_value<boost::CV::simple_exception_policy<short unsigned int, 1u, 31u, boost::gregorian::bad_day_of_month> >::min
FUNC d452a 8c 0 boost::CV::constrained_value<boost::CV::simple_exception_policy<short unsigned int, 1u, 31u, boost::gregorian::bad_day_of_month> >::assign
FUNC d45b6 b 0 boost::CV::constrained_value<boost::CV::simple_exception_policy<short unsigned int, 1400u, 10000u, boost::gregorian::bad_year> >::min
FUNC d45c2 8c 0 boost::CV::constrained_value<boost::CV::simple_exception_policy<short unsigned int, 1400u, 10000u, boost::gregorian::bad_year> >::assign
FUNC d464e b 0 boost::CV::constrained_value<boost::CV::simple_exception_policy<short unsigned int, 1u, 12u, boost::gregorian::bad_month> >::min
FUNC d465a 8c 0 boost::CV::constrained_value<boost::CV::simple_exception_policy<short unsigned int, 1u, 12u, boost::gregorian::bad_month> >::assign
FUNC d46e6 60 0 boost::date_time::int_adapter<long int>::from_special
FUNC d4746 3a 0 boost::date_time::int_adapter<long int>::is_special
FUNC d4780 19 0 boost::date_time::int_adapter<long int>::int_adapter
FUNC d4799 23 0 boost::date_time::int_adapter<unsigned int>::not_a_number
FUNC d47bc 22 0 boost::date_time::int_adapter<unsigned int>::neg_infinity
FUNC d47de 22 0 boost::date_time::int_adapter<unsigned int>::pos_infinity
FUNC d4800 23 0 boost::date_time::int_adapter<unsigned int>::max
FUNC d4823 23 0 boost::date_time::int_adapter<unsigned int>::min
FUNC d4846 10 0 boost::date_time::int_adapter<unsigned int>::as_number
FUNC d4856 116 0 boost::date_time::gregorian_calendar_base<boost::date_time::year_month_day_base<boost::gregorian::greg_year, boost::gregorian::greg_month, boost::gregorian::greg_day>, unsigned int>::day_number
FUNC d496c 39 0 boost::date_time::year_month_day_base<boost::gregorian::greg_year, boost::gregorian::greg_month, boost::gregorian::greg_day>::year_month_day_base
FUNC d49a6 b3 0 boost::date_time::gregorian_calendar_base<boost::date_time::year_month_day_base<boost::gregorian::greg_year, boost::gregorian::greg_month, boost::gregorian::greg_day>, unsigned int>::is_leap_year
FUNC d4a59 29 0 boost::enable_error_info<boost::gregorian::bad_day_of_month>
FUNC d4a82 64 0 boost::exception_detail::error_info_injector<boost::gregorian::bad_day_of_month>::~error_info_injector
FUNC d4af0 26 0 boost::exception_detail::error_info_injector<boost::gregorian::bad_day_of_month>::~error_info_injector
FUNC d4b1c 29 0 boost::enable_current_exception<boost::exception_detail::error_info_injector<boost::gregorian::bad_day_of_month> >
FUNC d4b46 8a 0 boost::exception_detail::clone_impl<boost::exception_detail::error_info_injector<boost::gregorian::bad_day_of_month> >::~clone_impl
FUNC d4be6 26 0 boost::exception_detail::clone_impl<boost::exception_detail::error_info_injector<boost::gregorian::bad_day_of_month> >::~clone_impl
FUNC d4c1c 1de 0 boost::date_time::gregorian_calendar_base<boost::date_time::year_month_day_base<boost::gregorian::greg_year, boost::gregorian::greg_month, boost::gregorian::greg_day>, unsigned int>::from_day_number
FUNC d4dfa 16 0 boost::date_time::int_adapter<unsigned int>::int_adapter
FUNC d4e10 f3 0 boost::date_time::time_resolution_traits<boost::date_time::time_resolution_traits_adapted64_impl, (boost::date_time::time_resolutions)5u, 1000000l, 6u, int>::to_tick_count
FUNC d4f03 1a 0 boost::date_time::counted_time_system<boost::date_time::counted_time_rep<boost::posix_time::millisec_posix_time_system_config> >::get_date
FUNC d4f1e 1a 0 boost::date_time::time_duration<boost::posix_time::time_duration, boost::date_time::time_resolution_traits<boost::date_time::time_resolution_traits_adapted64_impl, (boost::date_time::time_resolutions)5u, 1000000l, 6u, int> >::ticks
FUNC d4f38 1b 0 boost::date_time::date<boost::gregorian::date, boost::gregorian::gregorian_calendar, boost::gregorian::date_duration>::is_not_a_date
FUNC d4f53 81 0 boost::date_time::counted_time_system<boost::date_time::counted_time_rep<boost::posix_time::millisec_posix_time_system_config> >::get_time_of_day
FUNC d4fd4 b 0 boost::date_time::time_resolution_traits<boost::date_time::time_resolution_traits_adapted64_impl, (boost::date_time::time_resolutions)5u, 1000000l, 6u, int>::res_adjust
FUNC d4fdf 17c 0 boost::date_time::date_formatter<boost::gregorian::date, boost::date_time::iso_format<char>, char>::date_to_string
FUNC d515b 65 0 std::operator+<char, std::char_traits<char>, std::allocator<char> >
FUNC d51c0 da 0 std::operator+<char, std::char_traits<char>, std::allocator<char> >
FUNC d529a f 0 std::setfill<char>
FUNC d52aa 2a 0 boost::date_time::time_duration<boost::posix_time::time_duration, boost::date_time::time_resolution_traits<boost::date_time::time_resolution_traits_adapted64_impl, (boost::date_time::time_resolutions)5u, 1000000l, 6u, int> >::is_special
FUNC d52d4 11 0 boost::date_time::time_duration<boost::posix_time::time_duration, boost::date_time::time_resolution_traits<boost::date_time::time_resolution_traits_adapted64_impl, (boost::date_time::time_resolutions)5u, 1000000l, 6u, int> >::get_rep
FUNC d52e6 1d 0 boost::date_time::int_adapter<long int>::as_special
FUNC d5304 28 0 boost::date_time::time_duration<boost::posix_time::time_duration, boost::date_time::time_resolution_traits<boost::date_time::time_resolution_traits_adapted64_impl, (boost::date_time::time_resolutions)5u, 1000000l, 6u, int> >::is_negative
FUNC d532c 1a 0 boost::date_time::absolute_value<long int>
FUNC d5346 b 0 boost::date_time::time_duration<boost::posix_time::time_duration, boost::date_time::time_resolution_traits<boost::date_time::time_resolution_traits_adapted64_impl, (boost::date_time::time_resolutions)5u, 1000000l, 6u, int> >::num_fractional_digits
FUNC d5352 1a 0 std::deque<char const*, std::allocator<char const*> >::deque
FUNC d536c 116 0 std::deque<char const*, std::allocator<char const*> >::deque
FUNC d5482 1a 0 std::_Deque_base<char const*, std::allocator<char const*> >::_Deque_impl::~_Deque_impl
FUNC d549c 67 0 std::_Deque_base<char const*, std::allocator<char const*> >::~_Deque_base
FUNC d5504 2d 0 std::deque<char const*, std::allocator<char const*> >::begin
FUNC d5532 2d 0 std::deque<char const*, std::allocator<char const*> >::end
FUNC d5560 e 0 std::_Deque_base<char const*, std::allocator<char const*> >::_M_get_Tp_allocator
FUNC d556e 4c 0 std::_Deque_iterator<char const*, char const*&, char const**>::_Deque_iterator
FUNC d55ba 16 0 std::deque<char const*, std::allocator<char const*> >::_M_destroy_data
FUNC d55d0 25 0 boost::assign_detail::generic_list<char [11]>::push_back
FUNC d55f6 37 0 boost::assign_detail::converter<boost::assign_detail::generic_list<char const*>, std::_Deque_iterator<char const*, char const*&, char const**> >::convert_to_container<std::vector<std::basic_string<char> > >
FUNC d562e 1a 0 std::_Vector_base<std::basic_string<char, std::char_traits<char>, std::allocator<char> >, std::allocator<std::basic_string<char, std::char_traits<char>, std::allocator<char> > > >::_Vector_impl::~_Vector_impl
FUNC d5648 4f 0 std::_Vector_base<std::basic_string<char, std::char_traits<char>, std::allocator<char> >, std::allocator<std::basic_string<char, std::char_traits<char>, std::allocator<char> > > >::~_Vector_base
FUNC d5698 e 0 std::_Vector_base<std::basic_string<char, std::char_traits<char>, std::allocator<char> >, std::allocator<std::basic_string<char, std::char_traits<char>, std::allocator<char> > > >::_M_get_Tp_allocator
FUNC d56a6 29 0 std::_Destroy<std::basic_string<char>*, std::basic_string<char> >
FUNC d56d0 1a 0 std::deque<fun::LogColumnCppType, std::allocator<fun::LogColumnCppType> >::deque
FUNC d56ea 116 0 std::deque<fun::LogColumnCppType, std::allocator<fun::LogColumnCppType> >::deque
FUNC d5800 1a 0 std::_Deque_base<fun::LogColumnCppType, std::allocator<fun::LogColumnCppType> >::_Deque_impl::~_Deque_impl
FUNC d581a 67 0 std::_Deque_base<fun::LogColumnCppType, std::allocator<fun::LogColumnCppType> >::~_Deque_base
FUNC d5882 2d 0 std::deque<fun::LogColumnCppType, std::allocator<fun::LogColumnCppType> >::begin
FUNC d58b0 2d 0 std::deque<fun::LogColumnCppType, std::allocator<fun::LogColumnCppType> >::end
FUNC d58de e 0 std::_Deque_base<fun::LogColumnCppType, std::allocator<fun::LogColumnCppType> >::_M_get_Tp_allocator
FUNC d58ec 4c 0 std::_Deque_iterator<fun::LogColumnCppType, fun::LogColumnCppType&, fun::LogColumnCppType*>::_Deque_iterator
FUNC d5938 16 0 std::deque<fun::LogColumnCppType, std::allocator<fun::LogColumnCppType> >::_M_destroy_data
FUNC d594e 24 0 boost::assign_detail::generic_list<fun::LogColumnCppType>::push_back
FUNC d5972 37 0 boost::assign_detail::converter<boost::assign_detail::generic_list<fun::LogColumnCppType>, std::_Deque_iterator<fun::LogColumnCppType, fun::LogColumnCppType&, fun::LogColumnCppType*> >::convert_to_container<std::vector<fun::LogColumnCppType> >
FUNC d59aa 1a 0 std::_Vector_base<fun::LogColumnCppType, std::allocator<fun::LogColumnCppType> >::_Vector_impl::~_Vector_impl
FUNC d59c4 4f 0 std::_Vector_base<fun::LogColumnCppType, std::allocator<fun::LogColumnCppType> >::~_Vector_base
FUNC d5a14 e 0 std::_Vector_base<fun::LogColumnCppType, std::allocator<fun::LogColumnCppType> >::_M_get_Tp_allocator
FUNC d5a22 29 0 std::_Destroy<fun::LogColumnCppType*, fun::LogColumnCppType>
FUNC d5a4c 1a 0 std::deque<bool, std::allocator<bool> >::deque
FUNC d5a66 116 0 std::deque<bool, std::allocator<bool> >::deque
FUNC d5b7c 1a 0 std::_Deque_base<bool, std::allocator<bool> >::_Deque_impl::~_Deque_impl
FUNC d5b96 67 0 std::_Deque_base<bool, std::allocator<bool> >::~_Deque_base
FUNC d5bfe 2d 0 std::deque<bool, std::allocator<bool> >::begin
FUNC d5c2c 2d 0 std::deque<bool, std::allocator<bool> >::end
FUNC d5c5a e 0 std::_Deque_base<bool, std::allocator<bool> >::_M_get_Tp_allocator
FUNC d5c68 4c 0 std::_Deque_iterator<bool, bool&, bool*>::_Deque_iterator
FUNC d5cb4 16 0 std::deque<bool, std::allocator<bool> >::_M_destroy_data
FUNC d5cca 26 0 boost::assign_detail::generic_list<bool>::push_back
FUNC d5cf0 37 0 boost::assign_detail::converter<boost::assign_detail::generic_list<bool>, std::_Deque_iterator<bool, bool&, bool*> >::convert_to_container<std::vector<bool> >
FUNC d5d28 1a 0 std::_Bvector_base<std::allocator<bool> >::_Bvector_impl::~_Bvector_impl
FUNC d5d42 26 0 std::_Bvector_base<std::allocator<bool> >::~_Bvector_base
FUNC d5d68 e 0 std::move<std::allocator<long unsigned int>&>
FUNC d5d76 1a 0 std::_Vector_base<std::basic_string<char, std::char_traits<char>, std::allocator<char> >, std::allocator<std::basic_string<char, std::char_traits<char>, std::allocator<char> > > >::_Vector_base
FUNC d5d90 38 0 std::allocator_traits<std::allocator<std::basic_string<char, std::char_traits<char>, std::allocator<char> > > >::construct<std::basic_string<char>, const std::basic_string<char, std::char_traits<char>, std::allocator<char> >&>
FUNC d5dc8 1ec 0 std::vector<std::basic_string<char, std::char_traits<char>, std::allocator<char> >, std::allocator<std::basic_string<char, std::char_traits<char>, std::allocator<char> > > >::_M_emplace_back_aux<const std::basic_string<char, std::char_traits<char>, std::allocator<char> >&>
FUNC d5fb4 81 0 std::vector<std::basic_string<char, std::char_traits<char>, std::allocator<char> >, std::allocator<std::basic_string<char, std::char_traits<char>, std::allocator<char> > > >::emplace_back<std::basic_string<char, std::char_traits<char>, std::allocator<char> > >
FUNC d6035 b 0 boost::CV::simple_exception_policy<short unsigned int, 1u, 31u, boost::gregorian::bad_day_of_month>::min
FUNC d6040 4a 0 boost::CV::simple_exception_policy<short unsigned int, 1u, 31u, boost::gregorian::bad_day_of_month>::on_error
FUNC d608a b 0 boost::CV::constrained_value<boost::CV::simple_exception_policy<short unsigned int, 1u, 31u, boost::gregorian::bad_day_of_month> >::max
FUNC d6095 b 0 boost::CV::simple_exception_policy<short unsigned int, 1400u, 10000u, boost::gregorian::bad_year>::min
FUNC d60a0 41 0 boost::gregorian::bad_year::~bad_year
FUNC d60e2 26 0 boost::gregorian::bad_year::~bad_year
FUNC d6108 4a 0 boost::CV::simple_exception_policy<short unsigned int, 1400u, 10000u, boost::gregorian::bad_year>::on_error
FUNC d6152 b 0 boost::CV::constrained_value<boost::CV::simple_exception_policy<short unsigned int, 1400u, 10000u, boost::gregorian::bad_year> >::max
FUNC d615d b 0 boost::CV::simple_exception_policy<short unsigned int, 1u, 12u, boost::gregorian::bad_month>::min
FUNC d6168 41 0 boost::gregorian::bad_month::~bad_month
FUNC d61aa 26 0 boost::gregorian::bad_month::~bad_month
FUNC d61d0 4a 0 boost::CV::simple_exception_policy<short unsigned int, 1u, 12u, boost::gregorian::bad_month>::on_error
FUNC d621a b 0 boost::CV::constrained_value<boost::CV::simple_exception_policy<short unsigned int, 1u, 12u, boost::gregorian::bad_month> >::max
FUNC d6225 26 0 boost::date_time::int_adapter<long int>::not_a_number
FUNC d624b 25 0 boost::date_time::int_adapter<long int>::neg_infinity
FUNC d6270 25 0 boost::date_time::int_adapter<long int>::pos_infinity
FUNC d6295 26 0 boost::date_time::int_adapter<long int>::max
FUNC d62bb 26 0 boost::date_time::int_adapter<long int>::min
FUNC d62e2 1c8 0 boost::date_time::int_adapter<long int>::compare
FUNC d64aa 36 0 boost::date_time::int_adapter<long int>::is_nan
FUNC d64e0 2a 0 boost::date_time::int_adapter<long int>::is_neg_inf
FUNC d650a 2a 0 boost::date_time::int_adapter<long int>::is_pos_inf
FUNC d6534 7f 0 boost::date_time::int_adapter<long int>::is_infinity
FUNC d65b4 86 0 boost::date_time::int_adapter<long int>::operator<
FUNC d663a 7c 0 boost::exception_detail::error_info_injector<boost::gregorian::bad_day_of_month>::error_info_injector
FUNC d66b6 c9 0 boost::exception_detail::clone_impl<boost::exception_detail::error_info_injector<boost::gregorian::bad_day_of_month> >::clone_impl
FUNC d677f 27 0 boost::date_time::int_adapter<unsigned int>::is_neg_inf
FUNC d67a6 27 0 boost::date_time::int_adapter<unsigned int>::is_pos_inf
FUNC d67ce 8b 0 boost::date_time::counted_time_rep<boost::posix_time::millisec_posix_time_system_config>::date
FUNC d685a 1a 0 boost::date_time::counted_time_rep<boost::posix_time::millisec_posix_time_system_config>::is_special
FUNC d6874 11 0 boost::date_time::counted_time_rep<boost::posix_time::millisec_posix_time_system_config>::get_rep
FUNC d6885 24 0 boost::date_time::counted_time_rep<boost::posix_time::millisec_posix_time_system_config>::frac_sec_per_day
FUNC d68a9 58 0 boost::date_time::int_adapter<long int>::to_special
FUNC d6901 1a 0 boost::date_time::time_resolution_traits<boost::date_time::time_resolution_traits_adapted64_impl, (boost::date_time::time_resolutions)5u, 1000000l, 6u, int>::as_number
FUNC d691b 27 0 boost::date_time::int_adapter<unsigned int>::is_not_a_number
FUNC d6942 39 0 boost::date_time::counted_time_rep<boost::posix_time::millisec_posix_time_system_config>::tod
FUNC d697c 1b 0 boost::date_time::date<boost::gregorian::date, boost::gregorian::gregorian_calendar, boost::gregorian::date_duration>::is_neg_infinity
FUNC d6998 1b 0 boost::date_time::date<boost::gregorian::date, boost::gregorian::gregorian_calendar, boost::gregorian::date_duration>::is_pos_infinity
FUNC d69b3 d 0 boost::date_time::iso_format_base<char>::not_a_date
FUNC d69c0 d 0 boost::date_time::iso_format_base<char>::neg_infinity
FUNC d69cd d 0 boost::date_time::iso_format_base<char>::pos_infinity
FUNC d69da 215 0 boost::date_time::ymd_formatter<boost::date_time::year_month_day_base<boost::gregorian::greg_year, boost::gregorian::greg_month, boost::gregorian::greg_day>, boost::date_time::iso_format<char>, char>::ymd_to_string
FUNC d6bef b 0 boost::date_time::time_resolution_traits<boost::date_time::time_resolution_traits_adapted64_impl, (boost::date_time::time_resolutions)5u, 1000000l, 6u, int>::is_adapted
FUNC d6bfa b 0 boost::date_time::time_resolution_traits<boost::date_time::time_resolution_traits_adapted64_impl, (boost::date_time::time_resolutions)5u, 1000000l, 6u, int>::num_fractional_digits
FUNC d6c06 4d 0 std::_Deque_base<char const*, std::allocator<char const*> >::_Deque_base
FUNC d6c54 e 0 std::_Deque_base<char const*, std::allocator<char const*> >::_M_get_Tp_allocator
FUNC d6c62 29 0 std::deque<char const*, std::allocator<char const*> >::size
FUNC d6c8c 5e 0 std::_Deque_base<char const*, std::allocator<char const*> >::_Deque_base
FUNC d6cea 2d 0 std::deque<char const*, std::allocator<char const*> >::begin
FUNC d6d18 2d 0 std::deque<char const*, std::allocator<char const*> >::end
FUNC d6d45 87 0 std::__uninitialized_copy_a<std::_Deque_iterator<char const*, char const* const&, char const* const*>, std::_Deque_iterator<char const*, char const*&, char const**>, char const*>
FUNC d6dcc 1a 0 std::allocator<char const*>::~allocator
FUNC d6de6 45 0 std::_Deque_base<char const*, std::allocator<char const*> >::_M_destroy_nodes
FUNC d6e2c 6e 0 std::_Deque_base<char const*, std::allocator<char const*> >::_M_deallocate_map
FUNC d6e9a 6f 0 std::deque<char const*, std::allocator<char const*> >::push_back
FUNC d6f0a 92 0 boost::assign_detail::converter<boost::assign_detail::generic_list<char const*>, std::_Deque_iterator<char const*, char const*&, char const**> >::convert<std::vector<std::basic_string<char> > >
FUNC d6f9c 1a 0 std::allocator<std::basic_string<char, std::char_traits<char>, std::allocator<char> > >::~allocator
FUNC d6fb6 34 0 std::_Vector_base<std::basic_string<char, std::char_traits<char>, std::allocator<char> >, std::allocator<std::basic_string<char, std::char_traits<char>, std::allocator<char> > > >::_M_deallocate
FUNC d6fea 25 0 std::_Destroy<std::basic_string<char>*>
FUNC d7010 4d 0 std::_Deque_base<fun::LogColumnCppType, std::allocator<fun::LogColumnCppType> >::_Deque_base
FUNC d705e e 0 std::_Deque_base<fun::LogColumnCppType, std::allocator<fun::LogColumnCppType> >::_M_get_Tp_allocator
FUNC d706c 29 0 std::deque<fun::LogColumnCppType, std::allocator<fun::LogColumnCppType> >::size
FUNC d7096 5e 0 std::_Deque_base<fun::LogColumnCppType, std::allocator<fun::LogColumnCppType> >::_Deque_base
FUNC d70f4 2d 0 std::deque<fun::LogColumnCppType, std::allocator<fun::LogColumnCppType> >::begin
FUNC d7122 2d 0 std::deque<fun::LogColumnCppType, std::allocator<fun::LogColumnCppType> >::end
FUNC d714f 87 0 std::__uninitialized_copy_a<std::_Deque_iterator<fun::LogColumnCppType, const fun::LogColumnCppType&, const fun::LogColumnCppType*>, std::_Deque_iterator<fun::LogColumnCppType, fun::LogColumnCppType&, fun::LogColumnCppType*>, fun::LogColumnCppType>
FUNC d71d6 1a 0 std::allocator<fun::LogColumnCppType>::~allocator
FUNC d71f0 45 0 std::_Deque_base<fun::LogColumnCppType, std::allocator<fun::LogColumnCppType> >::_M_destroy_nodes
FUNC d7236 6e 0 std::_Deque_base<fun::LogColumnCppType, std::allocator<fun::LogColumnCppType> >::_M_deallocate_map
FUNC d72a4 6f 0 std::deque<fun::LogColumnCppType, std::allocator<fun::LogColumnCppType> >::push_back
FUNC d7314 92 0 boost::assign_detail::converter<boost::assign_detail::generic_list<fun::LogColumnCppType>, std::_Deque_iterator<fun::LogColumnCppType, fun::LogColumnCppType&, fun::LogColumnCppType*> >::convert<std::vector<fun::LogColumnCppType> >
FUNC d73a6 34 0 std::_Vector_base<fun::LogColumnCppType, std::allocator<fun::LogColumnCppType> >::_M_deallocate
FUNC d73da 25 0 std::_Destroy<fun::LogColumnCppType*>
FUNC d7400 4d 0 std::_Deque_base<bool, std::allocator<bool> >::_Deque_base
FUNC d744e e 0 std::_Deque_base<bool, std::allocator<bool> >::_M_get_Tp_allocator
FUNC d745c 29 0 std::deque<bool, std::allocator<bool> >::size
FUNC d7486 5e 0 std::_Deque_base<bool, std::allocator<bool> >::_Deque_base
FUNC d74e4 2d 0 std::deque<bool, std::allocator<bool> >::begin
FUNC d7512 2d 0 std::deque<bool, std::allocator<bool> >::end
FUNC d753f 87 0 std::__uninitialized_copy_a<std::_Deque_iterator<bool, bool const&, bool const*>, std::_Deque_iterator<bool, bool&, bool*>, bool>
FUNC d75c6 1a 0 std::allocator<bool>::~allocator
FUNC d75e0 45 0 std::_Deque_base<bool, std::allocator<bool> >::_M_destroy_nodes
FUNC d7626 6e 0 std::_Deque_base<bool, std::allocator<bool> >::_M_deallocate_map
FUNC d7694 6f 0 std::deque<bool, std::allocator<bool> >::push_back
FUNC d7704 92 0 boost::assign_detail::converter<boost::assign_detail::generic_list<bool>, std::_Deque_iterator<bool, bool&, bool*> >::convert<std::vector<bool> >
FUNC d7796 1a 0 std::allocator<long unsigned int>::~allocator
FUNC d77b0 4f 0 std::_Bvector_base<std::allocator<bool> >::_M_deallocate
FUNC d7800 58 0 std::_Bvector_base<std::allocator<bool> >::_Bvector_impl::_Bvector_impl
FUNC d7858 3d 0 std::_Vector_base<std::basic_string<char, std::char_traits<char>, std::allocator<char> >, std::allocator<std::basic_string<char, std::char_traits<char>, std::allocator<char> > > >::_Vector_impl::_Vector_impl
FUNC d7895 38 0 std::allocator_traits<std::allocator<std::basic_string<char, std::char_traits<char>, std::allocator<char> > > >::_S_construct<std::basic_string<char>, const std::basic_string<char, std::char_traits<char>, std::allocator<char> >&>
FUNC d78ce c9 0 std::vector<std::basic_string<char, std::char_traits<char>, std::allocator<char> >, std::allocator<std::basic_string<char, std::char_traits<char>, std::allocator<char> > > >::_M_check_len
FUNC d7998 38 0 std::_Vector_base<std::basic_string<char, std::char_traits<char>, std::allocator<char> >, std::allocator<std::basic_string<char, std::char_traits<char>, std::allocator<char> > > >::_M_allocate
FUNC d79d0 4e 0 std::__uninitialized_move_if_noexcept_a<std::basic_string<char>*, std::basic_string<char>*, std::allocator<std::basic_string<char> > >
FUNC d7a1e 25 0 std::allocator_traits<std::allocator<std::basic_string<char, std::char_traits<char>, std::allocator<char> > > >::destroy<std::basic_string<char> >
FUNC d7a43 38 0 std::allocator_traits<std::allocator<std::basic_string<char, std::char_traits<char>, std::allocator<char> > > >::construct<std::basic_string<char>, std::basic_string<char, std::char_traits<char>, std::allocator<char> > >
FUNC d7a7c 1ec 0 std::vector<std::basic_string<char, std::char_traits<char>, std::allocator<char> >, std::allocator<std::basic_string<char, std::char_traits<char>, std::allocator<char> > > >::_M_emplace_back_aux<std::basic_string<char, std::char_traits<char>, std::allocator<char> > >
FUNC d7c68 b 0 boost::CV::simple_exception_policy<short unsigned int, 1u, 31u, boost::gregorian::bad_day_of_month>::max
FUNC d7c74 37 0 boost::gregorian::bad_year::bad_year
FUNC d7cac 87 0 boost::exception_detail::error_info_injector<boost::gregorian::bad_year>::error_info_injector
FUNC d7d34 b8 0 boost::exception_detail::clone_impl<boost::exception_detail::error_info_injector<boost::gregorian::bad_year> >::clone_impl
FUNC d7dec 99 0 boost::throw_exception<boost::gregorian::bad_year>
FUNC d7e85 b 0 boost::CV::simple_exception_policy<short unsigned int, 1400u, 10000u, boost::gregorian::bad_year>::max
FUNC d7e90 37 0 boost::gregorian::bad_month::bad_month
FUNC d7ec8 87 0 boost::exception_detail::error_info_injector<boost::gregorian::bad_month>::error_info_injector
FUNC d7f50 b8 0 boost::exception_detail::clone_impl<boost::exception_detail::error_info_injector<boost::gregorian::bad_month> >::clone_impl
FUNC d8008 99 0 boost::throw_exception<boost::gregorian::bad_month>
FUNC d80a1 b 0 boost::CV::simple_exception_policy<short unsigned int, 1u, 12u, boost::gregorian::bad_month>::max
FUNC d80ac 33 0 boost::date_time::counted_time_rep<boost::posix_time::millisec_posix_time_system_config>::day_count
FUNC d80df 2a 0 boost::date_time::int_adapter<long int>::is_not_a_number
FUNC d8109 b 0 boost::date_time::iso_format<char>::has_date_sep_chars
FUNC d8114 b 0 boost::date_time::iso_format_base<char>::month_sep_char
FUNC d811f ec 0 boost::date_time::month_formatter<boost::gregorian::greg_month, boost::date_time::iso_format<char>, char>::format_month
FUNC d820b b 0 boost::date_time::iso_format_base<char>::day_sep_char
FUNC d8216 73 0 std::_Deque_base<char const*, std::allocator<char const*> >::_Deque_impl::_Deque_impl
FUNC d828a 1a8 0 std::_Deque_base<char const*, std::allocator<char const*> >::_M_initialize_map
FUNC d8432 7e 0 std::operator-<char const*, char const*&, char const**>
FUNC d84b0 7e 0 std::_Deque_base<char const*, std::allocator<char const*> >::_Deque_impl::_Deque_impl
FUNC d852e 4c 0 std::_Deque_iterator<char const*, char const* const&, char const* const*>::_Deque_iterator
FUNC d857a 83 0 std::uninitialized_copy<std::_Deque_iterator<char const*, char const* const&, char const* const*>, std::_Deque_iterator<char const*, char const*&, char const**> >
FUNC d85fe a 0 __gnu_cxx::new_allocator<char const*>::~new_allocator
FUNC d8608 32 0 std::_Deque_base<char const*, std::allocator<char const*> >::_M_deallocate_node
FUNC d863a 34 0 std::_Deque_base<char const*, std::allocator<char const*> >::_M_get_map_allocator
FUNC d866e 1a 0 std::allocator<char const**>::~allocator
FUNC d8688 22 0 __gnu_cxx::new_allocator<char const**>::deallocate
FUNC d86aa e 0 std::forward<char const* const&>
FUNC d86b8 44 0 __gnu_cxx::new_allocator<char const*>::construct<char const*, char const* const&>
FUNC d86fc d9 0 std::deque<char const*, std::allocator<char const*> >::_M_push_back_aux<char const* const&>
FUNC d87d6 29 0 boost::assign_detail::converter<boost::assign_detail::generic_list<char const*>, std::_Deque_iterator<char const*, char const*&, char const**> >::begin
FUNC d8800 29 0 boost::assign_detail::converter<boost::assign_detail::generic_list<char const*>, std::_Deque_iterator<char const*, char const*&, char const**> >::end
FUNC d882a 1a 0 std::allocator<std::basic_string<char, std::char_traits<char>, std::allocator<char> > >::allocator
FUNC d8844 8f 0 std::vector<std::basic_string<char, std::char_traits<char>, std::allocator<char> >, std::allocator<std::basic_string<char, std::char_traits<char>, std::allocator<char> > > >::vector<std::_Deque_iterator<char const*, char const*&, char const**>, void>
FUNC d88d4 a 0 __gnu_cxx::new_allocator<std::basic_string<char, std::char_traits<char>, std::allocator<char> > >::~new_allocator
FUNC d88de 22 0 __gnu_cxx::new_allocator<std::basic_string<char, std::char_traits<char>, std::allocator<char> > >::deallocate
FUNC d8900 37 0 std::_Destroy_aux<false>::__destroy<std::basic_string<char>*>
FUNC d8938 25 0 std::allocator<std::basic_string<char, std::char_traits<char>, std::allocator<char> > >::allocator
FUNC d895e 73 0 std::_Deque_base<fun::LogColumnCppType, std::allocator<fun::LogColumnCppType> >::_Deque_impl::_Deque_impl
FUNC d89d2 1a8 0 std::_Deque_base<fun::LogColumnCppType, std::allocator<fun::LogColumnCppType> >::_M_initialize_map
FUNC d8b7a 7e 0 std::operator-<fun::LogColumnCppType, fun::LogColumnCppType&, fun::LogColumnCppType*>
FUNC d8bf8 7e 0 std::_Deque_base<fun::LogColumnCppType, std::allocator<fun::LogColumnCppType> >::_Deque_impl::_Deque_impl
FUNC d8c76 4c 0 std::_Deque_iterator<fun::LogColumnCppType, const fun::LogColumnCppType&, const fun::LogColumnCppType*>::_Deque_iterator
FUNC d8cc2 83 0 std::uninitialized_copy<std::_Deque_iterator<fun::LogColumnCppType, const fun::LogColumnCppType&, const fun::LogColumnCppType*>, std::_Deque_iterator<fun::LogColumnCppType, fun::LogColumnCppType&, fun::LogColumnCppType*> >
FUNC d8d46 a 0 __gnu_cxx::new_allocator<fun::LogColumnCppType>::~new_allocator
FUNC d8d50 32 0 std::_Deque_base<fun::LogColumnCppType, std::allocator<fun::LogColumnCppType> >::_M_deallocate_node
FUNC d8d82 34 0 std::_Deque_base<fun::LogColumnCppType, std::allocator<fun::LogColumnCppType> >::_M_get_map_allocator
FUNC d8db6 1a 0 std::allocator<fun::LogColumnCppType*>::~allocator
FUNC d8dd0 22 0 __gnu_cxx::new_allocator<fun::LogColumnCppType*>::deallocate
FUNC d8df2 e 0 std::forward<const fun::LogColumnCppType&>
FUNC d8e00 42 0 __gnu_cxx::new_allocator<fun::LogColumnCppType>::construct<fun::LogColumnCppType, const fun::LogColumnCppType&>
FUNC d8e42 d9 0 std::deque<fun::LogColumnCppType, std::allocator<fun::LogColumnCppType> >::_M_push_back_aux<const fun::LogColumnCppType&>
FUNC d8f1c 29 0 boost::assign_detail::converter<boost::assign_detail::generic_list<fun::LogColumnCppType>, std::_Deque_iterator<fun::LogColumnCppType, fun::LogColumnCppType&, fun::LogColumnCppType*> >::begin
FUNC d8f46 29 0 boost::assign_detail::converter<boost::assign_detail::generic_list<fun::LogColumnCppType>, std::_Deque_iterator<fun::LogColumnCppType, fun::LogColumnCppType&, fun::LogColumnCppType*> >::end
FUNC d8f70 1a 0 std::allocator<fun::LogColumnCppType>::allocator
FUNC d8f8a 8f 0 std::vector<fun::LogColumnCppType, std::allocator<fun::LogColumnCppType> >::vector<std::_Deque_iterator<fun::LogColumnCppType, fun::LogColumnCppType&, fun::LogColumnCppType*>, void>
FUNC d901a 22 0 __gnu_cxx::new_allocator<fun::LogColumnCppType>::deallocate
FUNC d903c e 0 std::_Destroy_aux<true>::__destroy<fun::LogColumnCppType*>
FUNC d904a 25 0 std::allocator<fun::LogColumnCppType>::allocator
FUNC d9070 73 0 std::_Deque_base<bool, std::allocator<bool> >::_Deque_impl::_Deque_impl
FUNC d90e4 1a4 0 std::_Deque_base<bool, std::allocator<bool> >::_M_initialize_map
FUNC d9288 76 0 std::operator-<bool, bool&, bool*>
FUNC d92fe 7e 0 std::_Deque_base<bool, std::allocator<bool> >::_Deque_impl::_Deque_impl
FUNC d937c 4c 0 std::_Deque_iterator<bool, bool const&, bool const*>::_Deque_iterator
FUNC d93c8 83 0 std::uninitialized_copy<std::_Deque_iterator<bool, bool const&, bool const*>, std::_Deque_iterator<bool, bool&, bool*> >
FUNC d944c a 0 __gnu_cxx::new_allocator<bool>::~new_allocator
FUNC d9456 32 0 std::_Deque_base<bool, std::allocator<bool> >::_M_deallocate_node
FUNC d9488 34 0 std::_Deque_base<bool, std::allocator<bool> >::_M_get_map_allocator
FUNC d94bc 1a 0 std::allocator<bool*>::~allocator
FUNC d94d6 22 0 __gnu_cxx::new_allocator<bool*>::deallocate
FUNC d94f8 e 0 std::forward<bool const&>
FUNC d9506 43 0 __gnu_cxx::new_allocator<bool>::construct<bool, bool const&>
FUNC d954a d9 0 std::deque<bool, std::allocator<bool> >::_M_push_back_aux<bool const&>
FUNC d9624 29 0 boost::assign_detail::converter<boost::assign_detail::generic_list<bool>, std::_Deque_iterator<bool, bool&, bool*> >::begin
FUNC d964e 29 0 boost::assign_detail::converter<boost::assign_detail::generic_list<bool>, std::_Deque_iterator<bool, bool&, bool*> >::end
FUNC d9678 1a 0 std::allocator<bool>::allocator
FUNC d9692 8f 0 std::vector<bool, std::allocator<bool> >::vector<std::_Deque_iterator<bool, bool&, bool*>, void>
FUNC d9722 a 0 __gnu_cxx::new_allocator<long unsigned int>::~new_allocator
FUNC d972c 22 0 __gnu_cxx::new_allocator<long unsigned int>::deallocate
FUNC d974e 25 0 std::allocator<long unsigned int>::allocator
FUNC d9774 74 0 __gnu_cxx::new_allocator<std::basic_string<char, std::char_traits<char>, std::allocator<char> > >::construct<std::basic_string<char>, const std::basic_string<char, std::char_traits<char>, std::allocator<char> >&>
FUNC d97e8 22 0 std::vector<std::basic_string<char, std::char_traits<char>, std::allocator<char> >, std::allocator<std::basic_string<char, std::char_traits<char>, std::allocator<char> > > >::max_size
FUNC d980a 42 0 __gnu_cxx::new_allocator<std::basic_string<char, std::char_traits<char>, std::allocator<char> > >::allocate
FUNC d984c 25 0 std::__make_move_if_noexcept_iterator<std::basic_string<char>*, std::move_iterator<std::basic_string<char>*> >
FUNC d9871 31 0 std::__uninitialized_copy_a<std::move_iterator<std::basic_string<char>*>, std::basic_string<char>*, std::basic_string<char> >
FUNC d98a2 25 0 std::allocator_traits<std::allocator<std::basic_string<char, std::char_traits<char>, std::allocator<char> > > >::_S_destroy<std::basic_string<char> >
FUNC d98c7 38 0 std::allocator_traits<std::allocator<std::basic_string<char, std::char_traits<char>, std::allocator<char> > > >::_S_construct<std::basic_string<char>, std::basic_string<char, std::char_traits<char>, std::allocator<char> > >
FUNC d98ff 29 0 boost::enable_error_info<boost::gregorian::bad_year>
FUNC d9928 64 0 boost::exception_detail::error_info_injector<boost::gregorian::bad_year>::~error_info_injector
FUNC d9996 26 0 boost::exception_detail::error_info_injector<boost::gregorian::bad_year>::~error_info_injector
FUNC d99c2 29 0 boost::enable_current_exception<boost::exception_detail::error_info_injector<boost::gregorian::bad_year> >
FUNC d99ec 8a 0 boost::exception_detail::clone_impl<boost::exception_detail::error_info_injector<boost::gregorian::bad_year> >::~clone_impl
FUNC d9a8c 26 0 boost::exception_detail::clone_impl<boost::exception_detail::error_info_injector<boost::gregorian::bad_year> >::~clone_impl
FUNC d9ac1 29 0 boost::enable_error_info<boost::gregorian::bad_month>
FUNC d9aea 64 0 boost::exception_detail::error_info_injector<boost::gregorian::bad_month>::~error_info_injector
FUNC d9b58 26 0 boost::exception_detail::error_info_injector<boost::gregorian::bad_month>::~error_info_injector
FUNC d9b84 29 0 boost::enable_current_exception<boost::exception_detail::error_info_injector<boost::gregorian::bad_month> >
FUNC d9bae 8a 0 boost::exception_detail::clone_impl<boost::exception_detail::error_info_injector<boost::gregorian::bad_month> >::~clone_impl
FUNC d9c4e 26 0 boost::exception_detail::clone_impl<boost::exception_detail::error_info_injector<boost::gregorian::bad_month> >::~clone_impl
FUNC d9c83 b 0 boost::date_time::iso_format_base<char>::month_format
FUNC d9c8e 1a 0 std::allocator<char const*>::allocator
FUNC d9ca8 39 0 std::_Deque_iterator<char const*, char const*&, char const**>::_Deque_iterator
FUNC d9ce2 71 0 std::_Deque_base<char const*, std::allocator<char const*> >::_M_allocate_map
FUNC d9d54 81 0 std::_Deque_base<char const*, std::allocator<char const*> >::_M_create_nodes
FUNC d9dd6 50 0 std::_Deque_iterator<char const*, char const*&, char const**>::_M_set_node
FUNC d9e26 10 0 std::_Deque_iterator<char const*, char const*&, char const**>::_S_buffer_size
FUNC d9e36 25 0 std::allocator<char const*>::allocator
FUNC d9e5b 83 0 std::__uninitialized_copy<true>::__uninit_copy<std::_Deque_iterator<char const*, char const* const&, char const* const*>, std::_Deque_iterator<char const*, char const*&, char const**> >
FUNC d9ede 22 0 __gnu_cxx::new_allocator<char const*>::deallocate
FUNC d9f00 1e 0 std::allocator<char const**>::allocator<char const*>
FUNC d9f1e a 0 __gnu_cxx::new_allocator<char const**>::~new_allocator
FUNC d9f28 61 0 std::deque<char const*, std::allocator<char const*> >::_M_reserve_map_at_back
FUNC d9f8a 2f 0 std::_Deque_base<char const*, std::allocator<char const*> >::_M_allocate_node
FUNC d9fba 29 0 boost::assign_detail::generic_list<char const*>::begin
FUNC d9fe4 29 0 boost::assign_detail::generic_list<char const*>::end
FUNC da00e a 0 __gnu_cxx::new_allocator<std::basic_string<char, std::char_traits<char>, std::allocator<char> > >::new_allocator
FUNC da018 25 0 std::_Vector_base<std::basic_string<char, std::char_traits<char>, std::allocator<char> >, std::allocator<std::basic_string<char, std::char_traits<char>, std::allocator<char> > > >::_Vector_base
FUNC da03e 5c 0 std::vector<std::basic_string<char, std::char_traits<char>, std::allocator<char> >, std::allocator<std::basic_string<char, std::char_traits<char>, std::allocator<char> > > >::_M_initialize_dispatch<std::_Deque_iterator<char const*, char const*&, char const**> >
FUNC da09a e 0 std::__addressof<std::basic_string<char> >
FUNC da0a8 1a 0 std::_Destroy<std::basic_string<char> >
FUNC da0c2 e 0 __gnu_cxx::new_allocator<std::basic_string<char, std::char_traits<char>, std::allocator<char> > >::new_allocator
FUNC da0d0 39 0 std::_Deque_iterator<fun::LogColumnCppType, fun::LogColumnCppType&, fun::LogColumnCppType*>::_Deque_iterator
FUNC da10a 71 0 std::_Deque_base<fun::LogColumnCppType, std::allocator<fun::LogColumnCppType> >::_M_allocate_map
FUNC da17c 81 0 std::_Deque_base<fun::LogColumnCppType, std::allocator<fun::LogColumnCppType> >::_M_create_nodes
FUNC da1fe 50 0 std::_Deque_iterator<fun::LogColumnCppType, fun::LogColumnCppType&, fun::LogColumnCppType*>::_M_set_node
FUNC da24e 10 0 std::_Deque_iterator<fun::LogColumnCppType, fun::LogColumnCppType&, fun::LogColumnCppType*>::_S_buffer_size
FUNC da25e 83 0 std::__uninitialized_copy<true>::__uninit_copy<std::_Deque_iterator<fun::LogColumnCppType, const fun::LogColumnCppType&, const fun::LogColumnCppType*>, std::_Deque_iterator<fun::LogColumnCppType, fun::LogColumnCppType&, fun::LogColumnCppType*> >
FUNC da2e2 1e 0 std::allocator<fun::LogColumnCppType*>::allocator<fun::LogColumnCppType>
FUNC da300 a 0 __gnu_cxx::new_allocator<fun::LogColumnCppType*>::~new_allocator
FUNC da30a 61 0 std::deque<fun::LogColumnCppType, std::allocator<fun::LogColumnCppType> >::_M_reserve_map_at_back
FUNC da36c 2f 0 std::_Deque_base<fun::LogColumnCppType, std::allocator<fun::LogColumnCppType> >::_M_allocate_node
FUNC da39c 29 0 boost::assign_detail::generic_list<fun::LogColumnCppType>::begin
FUNC da3c6 29 0 boost::assign_detail::generic_list<fun::LogColumnCppType>::end
FUNC da3f0 a 0 __gnu_cxx::new_allocator<fun::LogColumnCppType>::new_allocator
FUNC da3fa 25 0 std::_Vector_base<fun::LogColumnCppType, std::allocator<fun::LogColumnCppType> >::_Vector_base
FUNC da420 5c 0 std::vector<fun::LogColumnCppType, std::allocator<fun::LogColumnCppType> >::_M_initialize_dispatch<std::_Deque_iterator<fun::LogColumnCppType, fun::LogColumnCppType&, fun::LogColumnCppType*> >
FUNC da47c e 0 __gnu_cxx::new_allocator<fun::LogColumnCppType>::new_allocator
FUNC da48a 39 0 std::_Deque_iterator<bool, bool&, bool*>::_Deque_iterator
FUNC da4c4 71 0 std::_Deque_base<bool, std::allocator<bool> >::_M_allocate_map
FUNC da536 81 0 std::_Deque_base<bool, std::allocator<bool> >::_M_create_nodes
FUNC da5b8 4c 0 std::_Deque_iterator<bool, bool&, bool*>::_M_set_node
FUNC da604 10 0 std::_Deque_iterator<bool, bool&, bool*>::_S_buffer_size
FUNC da614 25 0 std::allocator<bool>::allocator
FUNC da639 83 0 std::__uninitialized_copy<true>::__uninit_copy<std::_Deque_iterator<bool, bool const&, bool const*>, std::_Deque_iterator<bool, bool&, bool*> >
FUNC da6bc 22 0 __gnu_cxx::new_allocator<bool>::deallocate
FUNC da6de 1e 0 std::allocator<bool*>::allocator<bool>
FUNC da6fc a 0 __gnu_cxx::new_allocator<bool*>::~new_allocator
FUNC da706 61 0 std::deque<bool, std::allocator<bool> >::_M_reserve_map_at_back
FUNC da768 2f 0 std::_Deque_base<bool, std::allocator<bool> >::_M_allocate_node
FUNC da798 29 0 boost::assign_detail::generic_list<bool>::begin
FUNC da7c2 29 0 boost::assign_detail::generic_list<bool>::end
FUNC da7ec a 0 __gnu_cxx::new_allocator<bool>::new_allocator
FUNC da7f6 44 0 std::_Bvector_base<std::allocator<bool> >::_Bvector_base
FUNC da83a 68 0 std::vector<bool, std::allocator<bool> >::_M_initialize_dispatch<std::_Deque_iterator<bool, bool&, bool*> >
FUNC da8a2 e 0 __gnu_cxx::new_allocator<long unsigned int>::new_allocator
FUNC da8b0 1a 0 std::allocator_traits<std::allocator<std::basic_string<char, std::char_traits<char>, std::allocator<char> > > >::max_size
FUNC da8ca e 0 std::_Vector_base<std::basic_string<char, std::char_traits<char>, std::allocator<char> >, std::allocator<std::basic_string<char, std::char_traits<char>, std::allocator<char> > > >::_M_get_Tp_allocator
FUNC da8d8 14 0 __gnu_cxx::new_allocator<std::basic_string<char, std::char_traits<char>, std::allocator<char> > >::max_size
FUNC da8ec 19 0 std::move_iterator<std::basic_string<char, std::char_traits<char>, std::allocator<char> >*>::move_iterator
FUNC da905 2d 0 std::uninitialized_copy<std::move_iterator<std::basic_string<char>*>, std::basic_string<char>*>
FUNC da932 1e 0 __gnu_cxx::new_allocator<std::basic_string<char, std::char_traits<char>, std::allocator<char> > >::destroy<std::basic_string<char> >
FUNC da950 4c 0 __gnu_cxx::new_allocator<std::basic_string<char, std::char_traits<char>, std::allocator<char> > >::construct<std::basic_string<char>, std::basic_string<char, std::char_traits<char>, std::allocator<char> > >
FUNC da99c 7c 0 boost::exception_detail::error_info_injector<boost::gregorian::bad_year>::error_info_injector
FUNC daa18 c9 0 boost::exception_detail::clone_impl<boost::exception_detail::error_info_injector<boost::gregorian::bad_year> >::clone_impl
FUNC daae2 7c 0 boost::exception_detail::error_info_injector<boost::gregorian::bad_month>::error_info_injector
FUNC dab5e c9 0 boost::exception_detail::clone_impl<boost::exception_detail::error_info_injector<boost::gregorian::bad_month> >::clone_impl
FUNC dac28 a 0 __gnu_cxx::new_allocator<char const*>::new_allocator
FUNC dac32 42 0 __gnu_cxx::new_allocator<char const**>::allocate
FUNC dac74 e 0 __gnu_cxx::new_allocator<char const*>::new_allocator
FUNC dac82 e4 0 std::copy<std::_Deque_iterator<char const*, char const* const&, char const* const*>, std::_Deque_iterator<char const*, char const*&, char const**> >
FUNC dad66 a 0 __gnu_cxx::new_allocator<char const**>::new_allocator
FUNC dad70 228 0 std::deque<char const*, std::allocator<char const*> >::_M_reallocate_map
FUNC daf98 42 0 __gnu_cxx::new_allocator<char const*>::allocate
FUNC dafda 48 0 std::_Vector_base<std::basic_string<char, std::char_traits<char>, std::allocator<char> >, std::allocator<std::basic_string<char, std::char_traits<char>, std::allocator<char> > > >::_Vector_impl::_Vector_impl
FUNC db022 eb 0 std::vector<std::basic_string<char, std::char_traits<char>, std::allocator<char> >, std::allocator<std::basic_string<char, std::char_traits<char>, std::allocator<char> > > >::_M_range_initialize<std::_Deque_iterator<char const*, char const*&, char const**> >
FUNC db10e 42 0 __gnu_cxx::new_allocator<fun::LogColumnCppType*>::allocate
FUNC db150 e4 0 std::copy<std::_Deque_iterator<fun::LogColumnCppType, const fun::LogColumnCppType&, const fun::LogColumnCppType*>, std::_Deque_iterator<fun::LogColumnCppType, fun::LogColumnCppType&, fun::LogColumnCppType*> >
FUNC db234 a 0 __gnu_cxx::new_allocator<fun::LogColumnCppType*>::new_allocator
FUNC db23e 228 0 std::deque<fun::LogColumnCppType, std::allocator<fun::LogColumnCppType> >::_M_reallocate_map
FUNC db466 42 0 __gnu_cxx::new_allocator<fun::LogColumnCppType>::allocate
FUNC db4a8 48 0 std::_Vector_base<fun::LogColumnCppType, std::allocator<fun::LogColumnCppType> >::_Vector_impl::_Vector_impl
FUNC db4f0 eb 0 std::vector<fun::LogColumnCppType, std::allocator<fun::LogColumnCppType> >::_M_range_initialize<std::_Deque_iterator<fun::LogColumnCppType, fun::LogColumnCppType&, fun::LogColumnCppType*> >
FUNC db5dc 42 0 __gnu_cxx::new_allocator<bool*>::allocate
FUNC db61e e 0 __gnu_cxx::new_allocator<bool>::new_allocator
FUNC db62c e4 0 std::copy<std::_Deque_iterator<bool, bool const&, bool const*>, std::_Deque_iterator<bool, bool&, bool*> >
FUNC db710 a 0 __gnu_cxx::new_allocator<bool*>::new_allocator
FUNC db71a 228 0 std::deque<bool, std::allocator<bool> >::_M_reallocate_map
FUNC db942 3e 0 __gnu_cxx::new_allocator<bool>::allocate
FUNC db980 1e 0 std::allocator<long unsigned int>::allocator<bool>
FUNC db99e a 0 std::__iterator_category<std::_Deque_iterator<bool, bool&, bool*> >
FUNC db9a8 b5 0 std::vector<bool, std::allocator<bool> >::_M_initialize_range<std::_Deque_iterator<bool, bool&, bool*> >
FUNC dba5d 1a 0 std::allocator_traits<std::allocator<std::basic_string<char, std::char_traits<char>, std::allocator<char> > > >::_S_max_size<const std::allocator<std::basic_string<char> > >
FUNC dba77 ad 0 std::__uninitialized_copy<false>::__uninit_copy<std::move_iterator<std::basic_string<char>*>, std::basic_string<char>*>
FUNC dbb24 14 0 __gnu_cxx::new_allocator<char const**>::max_size
FUNC dbb38 41 0 std::__miter_base<std::_Deque_iterator<char const*, char const* const&, char const* const*> >
FUNC dbb79 106 0 std::__copy_move_a2<false, std::_Deque_iterator<char const*, char const* const&, char const* const*>, std::_Deque_iterator<char const*, char const*&, char const**> >
FUNC dbc7f 46 0 std::copy<char const***, char const***>
FUNC dbcc5 46 0 std::copy_backward<char const***, char const***>
FUNC dbd0c 14 0 __gnu_cxx::new_allocator<char const*>::max_size
FUNC dbd20 60 0 std::distance<std::_Deque_iterator<char const*, char const*&, char const**> >
FUNC dbd80 57 0 std::__uninitialized_copy_a<std::_Deque_iterator<char const*, char const*&, char const**>, std::basic_string<char>*, std::basic_string<char> >
FUNC dbdd8 14 0 __gnu_cxx::new_allocator<fun::LogColumnCppType*>::max_size
FUNC dbdec 41 0 std::__miter_base<std::_Deque_iterator<fun::LogColumnCppType, const fun::LogColumnCppType&, const fun::LogColumnCppType*> >
FUNC dbe2d 106 0 std::__copy_move_a2<false, std::_Deque_iterator<fun::LogColumnCppType, const fun::LogColumnCppType&, const fun::LogColumnCppType*>, std::_Deque_iterator<fun::LogColumnCppType, fun::LogColumnCppType&, fun::LogColumnCppType*> >
FUNC dbf33 46 0 std::copy<fun::LogColumnCppType**, fun::LogColumnCppType**>
FUNC dbf79 46 0 std::copy_backward<fun::LogColumnCppType**, fun::LogColumnCppType**>
FUNC dbfc0 14 0 __gnu_cxx::new_allocator<fun::LogColumnCppType>::max_size
FUNC dbfd4 60 0 std::distance<std::_Deque_iterator<fun::LogColumnCppType, fun::LogColumnCppType&, fun::LogColumnCppType*> >
FUNC dc034 38 0 std::_Vector_base<fun::LogColumnCppType, std::allocator<fun::LogColumnCppType> >::_M_allocate
FUNC dc06c 57 0 std::__uninitialized_copy_a<std::_Deque_iterator<fun::LogColumnCppType, fun::LogColumnCppType&, fun::LogColumnCppType*>, fun::LogColumnCppType*, fun::LogColumnCppType>
FUNC dc0c4 14 0 __gnu_cxx::new_allocator<bool*>::max_size
FUNC dc0d8 41 0 std::__miter_base<std::_Deque_iterator<bool, bool const&, bool const*> >
FUNC dc119 106 0 std::__copy_move_a2<false, std::_Deque_iterator<bool, bool const&, bool const*>, std::_Deque_iterator<bool, bool&, bool*> >
FUNC dc21f 46 0 std::copy<bool**, bool**>
FUNC dc265 46 0 std::copy_backward<bool**, bool**>
FUNC dc2ac 11 0 __gnu_cxx::new_allocator<bool>::max_size
FUNC dc2be a 0 __gnu_cxx::new_allocator<long unsigned int>::new_allocator
FUNC dc2c8 60 0 std::distance<std::_Deque_iterator<bool, bool&, bool*> >
FUNC dc328 a8 0 std::vector<bool, std::allocator<bool> >::_M_initialize
FUNC dc3d0 be 0 std::copy<std::_Deque_iterator<bool, bool&, bool*>, std::_Bit_iterator>
FUNC dc48e 28 0 std::operator!=<std::basic_string<char>*>
FUNC dc4b6 20 0 std::move_iterator<std::basic_string<char, std::char_traits<char>, std::allocator<char> >*>::operator++
FUNC dc4d6 1d 0 std::move_iterator<std::basic_string<char, std::char_traits<char>, std::allocator<char> >*>::operator*
FUNC dc4f3 48 0 std::_Construct<std::basic_string<char>, std::basic_string<char, std::char_traits<char>, std::allocator<char> > >
FUNC dc53b 31 0 std::_Iter_base<std::_Deque_iterator<char const*, char const* const&, char const* const*>, false>::_S_base
FUNC dc56c 41 0 std::__niter_base<std::_Deque_iterator<char const*, char const* const&, char const* const*> >
FUNC dc5ad 3c 0 std::__niter_base<std::_Deque_iterator<char const*, char const*&, char const**> >
FUNC dc5e9 87 0 std::__copy_move_a<false, std::_Deque_iterator<char const*, char const* const&, char const* const*>, std::_Deque_iterator<char const*, char const*&, char const**> >
FUNC dc670 1a 0 std::__miter_base<char const***>
FUNC dc68a 58 0 std::__copy_move_a2<false, char const***, char const***>
FUNC dc6e2 58 0 std::__copy_move_backward_a2<false, char const***, char const***>
FUNC dc73a a 0 std::__iterator_category<std::_Deque_iterator<char const*, char const*&, char const**> >
FUNC dc744 25 0 std::__distance<std::_Deque_iterator<char const*, char const*&, char const**> >
FUNC dc769 53 0 std::uninitialized_copy<std::_Deque_iterator<char const*, char const*&, char const**>, std::basic_string<char>*>
FUNC dc7bc 31 0 std::_Iter_base<std::_Deque_iterator<fun::LogColumnCppType, const fun::LogColumnCppType&, const fun::LogColumnCppType*>, false>::_S_base
FUNC dc7ed 41 0 std::__niter_base<std::_Deque_iterator<fun::LogColumnCppType, const fun::LogColumnCppType&, const fun::LogColumnCppType*> >
FUNC dc82e 3c 0 std::__niter_base<std::_Deque_iterator<fun::LogColumnCppType, fun::LogColumnCppType&, fun::LogColumnCppType*> >
FUNC dc86a 87 0 std::__copy_move_a<false, std::_Deque_iterator<fun::LogColumnCppType, const fun::LogColumnCppType&, const fun::LogColumnCppType*>, std::_Deque_iterator<fun::LogColumnCppType, fun::LogColumnCppType&, fun::LogColumnCppType*> >
FUNC dc8f1 1a 0 std::__miter_base<fun::LogColumnCppType**>
FUNC dc90b 58 0 std::__copy_move_a2<false, fun::LogColumnCppType**, fun::LogColumnCppType**>
FUNC dc963 58 0 std::__copy_move_backward_a2<false, fun::LogColumnCppType**, fun::LogColumnCppType**>
FUNC dc9bb a 0 std::__iterator_category<std::_Deque_iterator<fun::LogColumnCppType, fun::LogColumnCppType&, fun::LogColumnCppType*> >
FUNC dc9c5 25 0 std::__distance<std::_Deque_iterator<fun::LogColumnCppType, fun::LogColumnCppType&, fun::LogColumnCppType*> >
FUNC dc9ea 53 0 std::uninitialized_copy<std::_Deque_iterator<fun::LogColumnCppType, fun::LogColumnCppType&, fun::LogColumnCppType*>, fun::LogColumnCppType*>
FUNC dca3d 31 0 std::_Iter_base<std::_Deque_iterator<bool, bool const&, bool const*>, false>::_S_base
FUNC dca6e 41 0 std::__niter_base<std::_Deque_iterator<bool, bool const&, bool const*> >
FUNC dcaaf 3c 0 std::__niter_base<std::_Deque_iterator<bool, bool&, bool*> >
FUNC dcaeb 87 0 std::__copy_move_a<false, std::_Deque_iterator<bool, bool const&, bool const*>, std::_Deque_iterator<bool, bool&, bool*> >
FUNC dcb72 1a 0 std::__miter_base<bool**>
FUNC dcb8c 58 0 std::__copy_move_a2<false, bool**, bool**>
FUNC dcbe4 58 0 std::__copy_move_backward_a2<false, bool**, bool**>
FUNC dcc3c 25 0 std::__distance<std::_Deque_iterator<bool, bool&, bool*> >
FUNC dcc62 35 0 std::_Bvector_base<std::allocator<bool> >::_M_allocate
FUNC dcc97 16 0 std::_Bvector_base<std::allocator<bool> >::_S_nword
FUNC dccad 3c 0 std::__miter_base<std::_Deque_iterator<bool, bool&, bool*> >
FUNC dcce9 eb 0 std::__copy_move_a2<false, std::_Deque_iterator<bool, bool&, bool*>, std::_Bit_iterator>
FUNC dcdd4 39 0 std::operator==<std::basic_string<char>*>
FUNC dce0d 29 0 std::_Iter_base<std::_Deque_iterator<char const*, char const*&, char const**>, false>::_S_base
FUNC dce36 84 0 std::__copy_move<false, false, std::random_access_iterator_tag>::__copy_m<std::_Deque_iterator<char const*, char const* const&, char const* const*>, std::_Deque_iterator<char const*, char const*&, char const**> >
FUNC dceba e 0 std::_Iter_base<char const***, false>::_S_base
FUNC dcec8 1a 0 std::__niter_base<char const***>
FUNC dcee2 31 0 std::__copy_move_a<false, char const***, char const***>
FUNC dcf13 31 0 std::__copy_move_backward_a<false, char const***, char const***>
FUNC dcf44 ad 0 std::__uninitialized_copy<false>::__uninit_copy<std::_Deque_iterator<char const*, char const*&, char const**>, std::basic_string<char>*>
FUNC dcff1 29 0 std::_Iter_base<std::_Deque_iterator<fun::LogColumnCppType, fun::LogColumnCppType&, fun::LogColumnCppType*>, false>::_S_base
FUNC dd01a 82 0 std::__copy_move<false, false, std::random_access_iterator_tag>::__copy_m<std::_Deque_iterator<fun::LogColumnCppType, const fun::LogColumnCppType&, const fun::LogColumnCppType*>, std::_Deque_iterator<fun::LogColumnCppType, fun::LogColumnCppType&, fun::LogColumnCppType*> >
FUNC dd09c e 0 std::_Iter_base<fun::LogColumnCppType**, false>::_S_base
FUNC dd0aa 1a 0 std::__niter_base<fun::LogColumnCppType**>
FUNC dd0c4 31 0 std::__copy_move_a<false, fun::LogColumnCppType**, fun::LogColumnCppType**>
FUNC dd0f5 31 0 std::__copy_move_backward_a<false, fun::LogColumnCppType**, fun::LogColumnCppType**>
FUNC dd126 53 0 std::__uninitialized_copy<true>::__uninit_copy<std::_Deque_iterator<fun::LogColumnCppType, fun::LogColumnCppType&, fun::LogColumnCppType*>, fun::LogColumnCppType*>
FUNC dd179 29 0 std::_Iter_base<std::_Deque_iterator<bool, bool&, bool*>, false>::_S_base
FUNC dd1a2 83 0 std::__copy_move<false, false, std::random_access_iterator_tag>::__copy_m<std::_Deque_iterator<bool, bool const&, bool const*>, std::_Deque_iterator<bool, bool&, bool*> >
FUNC dd225 e 0 std::_Iter_base<bool**, false>::_S_base
FUNC dd233 1a 0 std::__niter_base<bool**>
FUNC dd24d 31 0 std::__copy_move_a<false, bool**, bool**>
FUNC dd27e 31 0 std::__copy_move_backward_a<false, bool**, bool**>
FUNC dd2b0 42 0 __gnu_cxx::new_allocator<long unsigned int>::allocate
FUNC dd2f2 41 0 std::__niter_base<std::_Bit_iterator>
FUNC dd333 78 0 std::__copy_move_a<false, std::_Deque_iterator<bool, bool&, bool*>, std::_Bit_iterator>
FUNC dd3ac 11 0 std::move_iterator<std::basic_string<char, std::char_traits<char>, std::allocator<char> >*>::base
FUNC dd3bd 7e 0 std::operator-<char const*, char const* const&, char const* const*>
FUNC dd43c 11 0 std::_Deque_iterator<char const*, char const* const&, char const* const*>::operator*
FUNC dd44e 11 0 std::_Deque_iterator<char const*, char const*&, char const**>::operator*
FUNC dd460 62 0 std::_Deque_iterator<char const*, char const* const&, char const* const*>::operator++
FUNC dd4c2 62 0 std::_Deque_iterator<char const*, char const*&, char const**>::operator++
FUNC dd524 65 0 std::__copy_move<false, true, std::random_access_iterator_tag>::__copy_m<char const**>
FUNC dd589 78 0 std::__copy_move_backward<false, true, std::random_access_iterator_tag>::__copy_move_b<char const**>
FUNC dd601 28 0 std::operator!=<char const*, char const*&, char const**>
FUNC dd629 e 0 std::forward<char const*&>
FUNC dd637 a0 0 std::_Construct<std::basic_string<char>, char const*&>
FUNC dd6d7 7e 0 std::operator-<fun::LogColumnCppType, const fun::LogColumnCppType&, const fun::LogColumnCppType*>
FUNC dd756 11 0 std::_Deque_iterator<fun::LogColumnCppType, const fun::LogColumnCppType&, const fun::LogColumnCppType*>::operator*
FUNC dd768 11 0 std::_Deque_iterator<fun::LogColumnCppType, fun::LogColumnCppType&, fun::LogColumnCppType*>::operator*
FUNC dd77a 62 0 std::_Deque_iterator<fun::LogColumnCppType, const fun::LogColumnCppType&, const fun::LogColumnCppType*>::operator++
FUNC dd7dc 62 0 std::_Deque_iterator<fun::LogColumnCppType, fun::LogColumnCppType&, fun::LogColumnCppType*>::operator++
FUNC dd83e 65 0 std::__copy_move<false, true, std::random_access_iterator_tag>::__copy_m<fun::LogColumnCppType*>
FUNC dd8a3 78 0 std::__copy_move_backward<false, true, std::random_access_iterator_tag>::__copy_move_b<fun::LogColumnCppType*>
FUNC dd91b 8e 0 std::copy<std::_Deque_iterator<fun::LogColumnCppType, fun::LogColumnCppType&, fun::LogColumnCppType*>, fun::LogColumnCppType*>
FUNC dd9a9 76 0 std::operator-<bool, bool const&, bool const*>
FUNC dda20 11 0 std::_Deque_iterator<bool, bool const&, bool const*>::operator*
FUNC dda32 11 0 std::_Deque_iterator<bool, bool&, bool*>::operator*
FUNC dda44 62 0 std::_Deque_iterator<bool, bool const&, bool const*>::operator++
FUNC ddaa6 62 0 std::_Deque_iterator<bool, bool&, bool*>::operator++
FUNC ddb08 65 0 std::__copy_move<false, true, std::random_access_iterator_tag>::__copy_m<bool*>
FUNC ddb6d 78 0 std::__copy_move_backward<false, true, std::random_access_iterator_tag>::__copy_move_b<bool*>
FUNC ddbe6 14 0 __gnu_cxx::new_allocator<long unsigned int>::max_size
FUNC ddbfa 2c 0 std::_Iter_base<std::_Bit_iterator, false>::_S_base
FUNC ddc26 ac 0 std::__copy_move<false, false, std::random_access_iterator_tag>::__copy_m<std::_Deque_iterator<bool, bool&, bool*>, std::_Bit_iterator>
FUNC ddcd2 10 0 std::_Deque_iterator<char const*, char const* const&, char const* const*>::_S_buffer_size
FUNC ddce2 50 0 std::_Deque_iterator<char const*, char const* const&, char const* const*>::_M_set_node
FUNC ddd32 22 0 std::operator==<char const*, char const*&, char const**>
FUNC ddd54 10 0 std::_Deque_iterator<fun::LogColumnCppType, const fun::LogColumnCppType&, const fun::LogColumnCppType*>::_S_buffer_size
FUNC ddd64 50 0 std::_Deque_iterator<fun::LogColumnCppType, const fun::LogColumnCppType&, const fun::LogColumnCppType*>::_M_set_node
FUNC dddb4 3c 0 std::__miter_base<std::_Deque_iterator<fun::LogColumnCppType, fun::LogColumnCppType&, fun::LogColumnCppType*> >
FUNC dddf0 ab 0 std::__copy_move_a2<false, std::_Deque_iterator<fun::LogColumnCppType, fun::LogColumnCppType&, fun::LogColumnCppType*>, fun::LogColumnCppType*>
FUNC dde9b 10 0 std::_Deque_iterator<bool, bool const&, bool const*>::_S_buffer_size
FUNC ddeac 4c 0 std::_Deque_iterator<bool, bool const&, bool const*>::_M_set_node
FUNC ddef8 1a 0 std::__niter_base<fun::LogColumnCppType*>
FUNC ddf12 57 0 std::__copy_move_a<false, std::_Deque_iterator<fun::LogColumnCppType, fun::LogColumnCppType&, fun::LogColumnCppType*>, fun::LogColumnCppType*>
FUNC ddf69 e 0 std::_Iter_base<fun::LogColumnCppType*, false>::_S_base
FUNC ddf77 64 0 std::__copy_move<false, false, std::random_access_iterator_tag>::__copy_m<std::_Deque_iterator<fun::LogColumnCppType, fun::LogColumnCppType&, fun::LogColumnCppType*>, fun::LogColumnCppType*>
FUNC ddfdc 6f 0 boost::exception_detail::clone_impl<boost::exception_detail::error_info_injector<boost::gregorian::bad_month> >::clone
FUNC de054 5d 0 boost::exception_detail::clone_impl<boost::exception_detail::error_info_injector<boost::gregorian::bad_month> >::rethrow
FUNC de0ba 6f 0 boost::exception_detail::clone_impl<boost::exception_detail::error_info_injector<boost::gregorian::bad_year> >::clone
FUNC de132 5d 0 boost::exception_detail::clone_impl<boost::exception_detail::error_info_injector<boost::gregorian::bad_year> >::rethrow
FUNC de198 6f 0 boost::exception_detail::clone_impl<boost::exception_detail::error_info_injector<boost::gregorian::bad_day_of_month> >::clone
FUNC de210 5d 0 boost::exception_detail::clone_impl<boost::exception_detail::error_info_injector<boost::gregorian::bad_day_of_month> >::rethrow
FUNC de276 c9 0 boost::exception_detail::clone_impl<boost::exception_detail::error_info_injector<boost::gregorian::bad_month> >::clone_impl
FUNC de340 c9 0 boost::exception_detail::clone_impl<boost::exception_detail::error_info_injector<boost::gregorian::bad_year> >::clone_impl
FUNC de40a c9 0 boost::exception_detail::clone_impl<boost::exception_detail::error_info_injector<boost::gregorian::bad_day_of_month> >::clone_impl
FUNC de4d4 3a3 0 protobuf_AssignDesc_funapi_2fdistribution_2ffun_5frpc_5fmessage_2eproto
FUNC de877 1c 0 protobuf_AssignDescriptorsOnce
FUNC de893 7b 0 protobuf_RegisterTypes
FUNC de90e 172 0 protobuf_ShutdownFile_funapi_2fdistribution_2ffun_5frpc_5fmessage_2eproto
FUNC dea80 1e4 0 protobuf_AddDesc_funapi_2fdistribution_2ffun_5frpc_5fmessage_2eproto
FUNC dec64 a4 0 FunRpcMessage::FunRpcMessage
FUNC ded08 a 0 FunRpcMessage::InitAsDefaultInstance
FUNC ded12 bb 0 FunRpcMessage::FunRpcMessage
FUNC dedce 60 0 FunRpcMessage::SharedCtor
FUNC dee2e 6d 0 FunRpcMessage::~FunRpcMessage
FUNC dee9c 26 0 FunRpcMessage::~FunRpcMessage
FUNC deec2 a7 0 FunRpcMessage::SharedDtor
FUNC def6a 17 0 FunRpcMessage::SetCachedSize
FUNC def82 12 0 FunRpcMessage::descriptor
FUNC def94 24 0 FunRpcMessage::default_instance
FUNC defb8 48 0 FunRpcMessage::New
FUNC df000 fa 0 FunRpcMessage::Clear
FUNC df0fa 497 0 FunRpcMessage::MergePartialFromCodedStream
FUNC df592 12c 0 FunRpcMessage::SerializeWithCachedSizes
FUNC df6be 435 0 FunRpcMessage::SerializeWithCachedSizesToArray
FUNC dfaf4 f3 0 FunRpcMessage::ByteSize
FUNC dfbe8 fb 0 FunRpcMessage::MergeFrom
FUNC dfce4 199 0 FunRpcMessage::MergeFrom
FUNC dfe7e 53 0 FunRpcMessage::CopyFrom
FUNC dfed2 48 0 FunRpcMessage::CopyFrom
FUNC dff1a 47 0 FunRpcMessage::IsInitialized
FUNC dff62 dd 0 FunRpcMessage::Swap
FUNC e0040 31 0 FunRpcMessage::GetMetadata
FUNC e0072 7f 0 FunRpcErrorMessage::FunRpcErrorMessage
FUNC e00f2 a 0 FunRpcErrorMessage::InitAsDefaultInstance
FUNC e00fc 96 0 FunRpcErrorMessage::FunRpcErrorMessage
FUNC e0192 42 0 FunRpcErrorMessage::SharedCtor
FUNC e01d4 5d 0 FunRpcErrorMessage::~FunRpcErrorMessage
FUNC e0232 26 0 FunRpcErrorMessage::~FunRpcErrorMessage
FUNC e0258 45 0 FunRpcErrorMessage::SharedDtor
FUNC e029e 17 0 FunRpcErrorMessage::SetCachedSize
FUNC e02b6 12 0 FunRpcErrorMessage::descriptor
FUNC e02c8 24 0 FunRpcErrorMessage::default_instance
FUNC e02ec 48 0 FunRpcErrorMessage::New
FUNC e0334 7e 0 FunRpcErrorMessage::Clear
FUNC e03b2 1b1 0 FunRpcErrorMessage::MergePartialFromCodedStream
FUNC e0564 b4 0 FunRpcErrorMessage::SerializeWithCachedSizes
FUNC e0618 187 0 FunRpcErrorMessage::SerializeWithCachedSizesToArray
FUNC e07a0 8c 0 FunRpcErrorMessage::ByteSize
FUNC e082c fb 0 FunRpcErrorMessage::MergeFrom
FUNC e0928 11e 0 FunRpcErrorMessage::MergeFrom
FUNC e0a46 53 0 FunRpcErrorMessage::CopyFrom
FUNC e0a9a 48 0 FunRpcErrorMessage::CopyFrom
FUNC e0ae2 24 0 FunRpcErrorMessage::IsInitialized
FUNC e0b06 88 0 FunRpcErrorMessage::Swap
FUNC e0b8e 31 0 FunRpcErrorMessage::GetMetadata
FUNC e0bc0 7f 0 FunRpcPingMessage::FunRpcPingMessage
FUNC e0c40 a 0 FunRpcPingMessage::InitAsDefaultInstance
FUNC e0c4a 96 0 FunRpcPingMessage::FunRpcPingMessage
FUNC e0ce0 42 0 FunRpcPingMessage::SharedCtor
FUNC e0d22 5d 0 FunRpcPingMessage::~FunRpcPingMessage
FUNC e0d80 26 0 FunRpcPingMessage::~FunRpcPingMessage
FUNC e0da6 45 0 FunRpcPingMessage::SharedDtor
FUNC e0dec 17 0 FunRpcPingMessage::SetCachedSize
FUNC e0e04 12 0 FunRpcPingMessage::descriptor
FUNC e0e16 24 0 FunRpcPingMessage::default_instance
FUNC e0e3a 48 0 FunRpcPingMessage::New
FUNC e0e82 7e 0 FunRpcPingMessage::Clear
FUNC e0f00 1b1 0 FunRpcPingMessage::MergePartialFromCodedStream
FUNC e10b2 b4 0 FunRpcPingMessage::SerializeWithCachedSizes
FUNC e1166 187 0 FunRpcPingMessage::SerializeWithCachedSizesToArray
FUNC e12ee 8c 0 FunRpcPingMessage::ByteSize
FUNC e137a fb 0 FunRpcPingMessage::MergeFrom
FUNC e1476 11e 0 FunRpcPingMessage::MergeFrom
FUNC e1594 53 0 FunRpcPingMessage::CopyFrom
FUNC e15e8 48 0 FunRpcPingMessage::CopyFrom
FUNC e1630 24 0 FunRpcPingMessage::IsInitialized
FUNC e1654 88 0 FunRpcPingMessage::Swap
FUNC e16dc 31 0 FunRpcPingMessage::GetMetadata
FUNC e170e 7f 0 FunRpcObjectMessage::FunRpcObjectMessage
FUNC e178e a 0 FunRpcObjectMessage::InitAsDefaultInstance
FUNC e1798 96 0 FunRpcObjectMessage::FunRpcObjectMessage
FUNC e182e 33 0 FunRpcObjectMessage::SharedCtor
FUNC e1862 5d 0 FunRpcObjectMessage::~FunRpcObjectMessage
FUNC e18c0 26 0 FunRpcObjectMessage::~FunRpcObjectMessage
FUNC e18e6 a 0 FunRpcObjectMessage::SharedDtor
FUNC e18f0 17 0 FunRpcObjectMessage::SetCachedSize
FUNC e1908 12 0 FunRpcObjectMessage::descriptor
FUNC e191a 24 0 FunRpcObjectMessage::default_instance
FUNC e193e 48 0 FunRpcObjectMessage::New
FUNC e1986 3c 0 FunRpcObjectMessage::Clear
FUNC e19c2 f8 0 FunRpcObjectMessage::MergePartialFromCodedStream
FUNC e1aba 48 0 FunRpcObjectMessage::SerializeWithCachedSizes
FUNC e1b02 50 0 FunRpcObjectMessage::SerializeWithCachedSizesToArray
FUNC e1b52 54 0 FunRpcObjectMessage::ByteSize
FUNC e1ba6 fb 0 FunRpcObjectMessage::MergeFrom
FUNC e1ca2 e2 0 FunRpcObjectMessage::MergeFrom
FUNC e1d84 53 0 FunRpcObjectMessage::CopyFrom
FUNC e1dd8 48 0 FunRpcObjectMessage::CopyFrom
FUNC e1e20 f 0 FunRpcObjectMessage::IsInitialized
FUNC e1e30 52 0 FunRpcObjectMessage::Swap
FUNC e1e82 31 0 FunRpcObjectMessage::GetMetadata
FUNC e1eb3 66 0 __static_initialization_and_destruction_0
FUNC e1f19 15 0 _GLOBAL__sub_I_fun_rpc_message.pb.cc
FUNC e1f2e 12 0 FunRpcMessage::unknown_fields
FUNC e1f40 12 0 FunRpcMessage::mutable_unknown_fields
FUNC e1f52 11 0 FunRpcMessage::GetCachedSize
FUNC e1f64 12 0 FunRpcErrorMessage::unknown_fields
FUNC e1f76 12 0 FunRpcErrorMessage::mutable_unknown_fields
FUNC e1f88 11 0 FunRpcErrorMessage::GetCachedSize
FUNC e1f9a 12 0 FunRpcPingMessage::unknown_fields
FUNC e1fac 12 0 FunRpcPingMessage::mutable_unknown_fields
FUNC e1fbe 11 0 FunRpcPingMessage::GetCachedSize
FUNC e1fd0 12 0 FunRpcObjectMessage::unknown_fields
FUNC e1fe2 12 0 FunRpcObjectMessage::mutable_unknown_fields
FUNC e1ff4 11 0 FunRpcObjectMessage::GetCachedSize
FUNC e2006 19 0 FunRpcMessage::has_sender
FUNC e2020 1d 0 FunRpcMessage::set_has_sender
FUNC e203e 12 0 FunRpcMessage::sender
FUNC e2050 88 0 FunRpcMessage::set_sender
FUNC e20d8 75 0 FunRpcMessage::mutable_sender
FUNC e214e 19 0 FunRpcMessage::has_xid
FUNC e2168 1d 0 FunRpcMessage::set_has_xid
FUNC e2186 12 0 FunRpcMessage::xid
FUNC e2198 88 0 FunRpcMessage::set_xid
FUNC e2220 75 0 FunRpcMessage::mutable_xid
FUNC e2296 19 0 FunRpcMessage::has_type
FUNC e22b0 1d 0 FunRpcMessage::set_has_type
FUNC e22ce 12 0 FunRpcMessage::type
FUNC e22e0 88 0 FunRpcMessage::set_type
FUNC e2368 75 0 FunRpcMessage::mutable_type
FUNC e23de 19 0 FunRpcErrorMessage::has_what
FUNC e23f8 1d 0 FunRpcErrorMessage::set_has_what
FUNC e2416 12 0 FunRpcErrorMessage::what
FUNC e2428 88 0 FunRpcErrorMessage::set_what
FUNC e24b0 75 0 FunRpcErrorMessage::mutable_what
FUNC e2526 19 0 FunRpcPingMessage::has_text
FUNC e2540 1d 0 FunRpcPingMessage::set_has_text
FUNC e255e 12 0 FunRpcPingMessage::text
FUNC e2570 88 0 FunRpcPingMessage::set_text
FUNC e25f8 75 0 FunRpcPingMessage::mutable_text
FUNC e266e 23 0 google::protobuf::io::CodedInputStream::BufferSize
FUNC e2692 37 0 google::protobuf::internal::WireFormatLite::BytesSize
FUNC e26ca 13 0 StaticDescriptorInitializer_funapi_2fdistribution_2ffun_5frpc_5fmessage_2eproto::StaticDescriptorInitializer_funapi_2fdistribution_2ffun_5frpc_5fmessage_2eproto
FUNC e26dd 39 0 google::protobuf::internal::dynamic_cast_if_available<const FunRpcMessage*, const google::protobuf::Message*>
FUNC e2716 39 0 google::protobuf::internal::dynamic_cast_if_available<const FunRpcErrorMessage*, const google::protobuf::Message*>
FUNC e274f 39 0 google::protobuf::internal::dynamic_cast_if_available<const FunRpcPingMessage*, const google::protobuf::Message*>
FUNC e2788 39 0 google::protobuf::internal::dynamic_cast_if_available<const FunRpcObjectMessage*, const google::protobuf::Message*>
FUNC e27c2 26 0 google::protobuf::internal::ExtensionIdentifier<FunRpcMessage, google::protobuf::internal::MessageTypeTraits<FunRpcErrorMessage>, 11u, false>::ExtensionIdentifier
FUNC e27e8 26 0 google::protobuf::internal::ExtensionIdentifier<FunRpcMessage, google::protobuf::internal::MessageTypeTraits<FunRpcPingMessage>, 11u, false>::ExtensionIdentifier
FUNC e280e 324 0 protobuf_AssignDesc_funapi_2fservice_2fmulticast_5fmessage_2eproto
FUNC e2b32 1c 0 protobuf_AssignDescriptorsOnce
FUNC e2b4e 61 0 protobuf_RegisterTypes
FUNC e2baf 117 0 protobuf_ShutdownFile_funapi_2fservice_2fmulticast_5fmessage_2eproto
FUNC e2cc6 1a2 0 protobuf_AddDesc_funapi_2fservice_2fmulticast_5fmessage_2eproto
FUNC e2e68 7f 0 FunMulticastChannelListMessage::FunMulticastChannelListMessage
FUNC e2ee8 a 0 FunMulticastChannelListMessage::InitAsDefaultInstance
FUNC e2ef2 96 0 FunMulticastChannelListMessage::FunMulticastChannelListMessage
FUNC e2f88 4d 0 FunMulticastChannelListMessage::SharedCtor
FUNC e2fd6 5d 0 FunMulticastChannelListMessage::~FunMulticastChannelListMessage
FUNC e3034 26 0 FunMulticastChannelListMessage::~FunMulticastChannelListMessage
FUNC e305a 45 0 FunMulticastChannelListMessage::SharedDtor
FUNC e30a0 17 0 FunMulticastChannelListMessage::SetCachedSize
FUNC e30b8 12 0 FunMulticastChannelListMessage::descriptor
FUNC e30ca 24 0 FunMulticastChannelListMessage::default_instance
FUNC e30ee 48 0 FunMulticastChannelListMessage::New
FUNC e3136 89 0 FunMulticastChannelListMessage::Clear
FUNC e31c0 304 0 FunMulticastChannelListMessage::MergePartialFromCodedStream
FUNC e34c4 e0 0 FunMulticastChannelListMessage::SerializeWithCachedSizes
FUNC e35a4 2a5 0 FunMulticastChannelListMessage::SerializeWithCachedSizesToArray
FUNC e384a b5 0 FunMulticastChannelListMessage::ByteSize
FUNC e3900 fb 0 FunMulticastChannelListMessage::MergeFrom
FUNC e39fc 14a 0 FunMulticastChannelListMessage::MergeFrom
FUNC e3b46 53 0 FunMulticastChannelListMessage::CopyFrom
FUNC e3b9a 48 0 FunMulticastChannelListMessage::CopyFrom
FUNC e3be2 24 0 FunMulticastChannelListMessage::IsInitialized
FUNC e3c06 a7 0 FunMulticastChannelListMessage::Swap
FUNC e3cae 31 0 FunMulticastChannelListMessage::GetMetadata
FUNC e3cdf 12 0 FunMulticastMessage_ErrorCode_descriptor
FUNC e3cf1 20 0 FunMulticastMessage_ErrorCode_IsValid
FUNC e3d12 c9 0 FunMulticastMessage::FunMulticastMessage
FUNC e3ddc a 0 FunMulticastMessage::InitAsDefaultInstance
FUNC e3de6 e0 0 FunMulticastMessage::FunMulticastMessage
FUNC e3ec6 74 0 FunMulticastMessage::SharedCtor
FUNC e3f3a 7d 0 FunMulticastMessage::~FunMulticastMessage
FUNC e3fb8 26 0 FunMulticastMessage::~FunMulticastMessage
FUNC e3fde 76 0 FunMulticastMessage::SharedDtor
FUNC e4054 17 0 FunMulticastMessage::SetCachedSize
FUNC e406c 12 0 FunMulticastMessage::descriptor
FUNC e407e 24 0 FunMulticastMessage::default_instance
FUNC e40a2 48 0 FunMulticastMessage::New
FUNC e40ea f9 0 FunMulticastMessage::Clear
FUNC e41e4 bb8 0 FunMulticastMessage::MergePartialFromCodedStream
FUNC e4d9c 236 0 FunMulticastMessage::SerializeWithCachedSizes
FUNC e4fd2 939 0 FunMulticastMessage::SerializeWithCachedSizesToArray
FUNC e590c 180 0 FunMulticastMessage::ByteSize
FUNC e5a8c fb 0 FunMulticastMessage::MergeFrom
FUNC e5b88 239 0 FunMulticastMessage::MergeFrom
FUNC e5dc2 53 0 FunMulticastMessage::CopyFrom
FUNC e5e16 48 0 FunMulticastMessage::CopyFrom
FUNC e5e5e 82 0 FunMulticastMessage::IsInitialized
FUNC e5ee0 149 0 FunMulticastMessage::Swap
FUNC e602a 31 0 FunMulticastMessage::GetMetadata
FUNC e605c 7f 0 FunChatMessage::FunChatMessage
FUNC e60dc a 0 FunChatMessage::InitAsDefaultInstance
FUNC e60e6 96 0 FunChatMessage::FunChatMessage
FUNC e617c 42 0 FunChatMessage::SharedCtor
FUNC e61be 5d 0 FunChatMessage::~FunChatMessage
FUNC e621c 26 0 FunChatMessage::~FunChatMessage
FUNC e6242 45 0 FunChatMessage::SharedDtor
FUNC e6288 17 0 FunChatMessage::SetCachedSize
FUNC e62a0 12 0 FunChatMessage::descriptor
FUNC e62b2 24 0 FunChatMessage::default_instance
FUNC e62d6 48 0 FunChatMessage::New
FUNC e631e 7e 0 FunChatMessage::Clear
FUNC e639c 1b1 0 FunChatMessage::MergePartialFromCodedStream
FUNC e654e b4 0 FunChatMessage::SerializeWithCachedSizes
FUNC e6602 187 0 FunChatMessage::SerializeWithCachedSizesToArray
FUNC e678a 8c 0 FunChatMessage::ByteSize
FUNC e6816 fb 0 FunChatMessage::MergeFrom
FUNC e6912 11e 0 FunChatMessage::MergeFrom
FUNC e6a30 53 0 FunChatMessage::CopyFrom
FUNC e6a84 48 0 FunChatMessage::CopyFrom
FUNC e6acc f 0 FunChatMessage::IsInitialized
FUNC e6adc 88 0 FunChatMessage::Swap
FUNC e6b64 31 0 FunChatMessage::GetMetadata
FUNC e6b95 66 0 __static_initialization_and_destruction_0
FUNC e6bfb 15 0 _GLOBAL__sub_I_multicast_message.pb.cc
FUNC e6c10 2f 0 google::protobuf::Descriptor::enum_type
FUNC e6c40 36 0 google::protobuf::internal::RepeatedPtrFieldBase::RepeatedPtrFieldBase
FUNC e6c76 11 0 google::protobuf::internal::RepeatedPtrFieldBase::size
FUNC e6c88 12 0 FunMulticastChannelListMessage::unknown_fields
FUNC e6c9a 12 0 FunMulticastChannelListMessage::mutable_unknown_fields
FUNC e6cac 11 0 FunMulticastChannelListMessage::GetCachedSize
FUNC e6cbe 12 0 FunMulticastMessage::unknown_fields
FUNC e6cd0 12 0 FunMulticastMessage::mutable_unknown_fields
FUNC e6ce2 11 0 FunMulticastMessage::GetCachedSize
FUNC e6cf4 12 0 FunChatMessage::unknown_fields
FUNC e6d06 12 0 FunChatMessage::mutable_unknown_fields
FUNC e6d18 11 0 FunChatMessage::GetCachedSize
FUNC e6d2a 19 0 FunMulticastChannelListMessage::has_channel_name
FUNC e6d44 1d 0 FunMulticastChannelListMessage::set_has_channel_name
FUNC e6d62 12 0 FunMulticastChannelListMessage::channel_name
FUNC e6d74 88 0 FunMulticastChannelListMessage::set_channel_name
FUNC e6dfc 75 0 FunMulticastChannelListMessage::mutable_channel_name
FUNC e6e72 19 0 FunMulticastChannelListMessage::has_num_members
FUNC e6e8c 1d 0 FunMulticastChannelListMessage::set_has_num_members
FUNC e6eaa 11 0 FunMulticastChannelListMessage::num_members
FUNC e6ebc 27 0 FunMulticastChannelListMessage::set_num_members
FUNC e6ee4 19 0 FunMulticastMessage::has_channel
FUNC e6efe 1d 0 FunMulticastMessage::set_has_channel
FUNC e6f1c 12 0 FunMulticastMessage::channel
FUNC e6f2e 88 0 FunMulticastMessage::set_channel
FUNC e6fb6 75 0 FunMulticastMessage::mutable_channel
FUNC e702c 19 0 FunMulticastMessage::has_join
FUNC e7046 1d 0 FunMulticastMessage::set_has_join
FUNC e7064 12 0 FunMulticastMessage::join
FUNC e7076 2a 0 FunMulticastMessage::set_join
FUNC e70a0 19 0 FunMulticastMessage::has_leave
FUNC e70ba 1d 0 FunMulticastMessage::set_has_leave
FUNC e70d8 12 0 FunMulticastMessage::leave
FUNC e70ea 2a 0 FunMulticastMessage::set_leave
FUNC e7114 19 0 FunMulticastMessage::has_bounce
FUNC e712e 1d 0 FunMulticastMessage::set_has_bounce
FUNC e714c 12 0 FunMulticastMessage::bounce
FUNC e715e 2a 0 FunMulticastMessage::set_bounce
FUNC e7188 19 0 FunMulticastMessage::has_sender
FUNC e71a2 1d 0 FunMulticastMessage::set_has_sender
FUNC e71c0 12 0 FunMulticastMessage::sender
FUNC e71d2 88 0 FunMulticastMessage::set_sender
FUNC e725a 75 0 FunMulticastMessage::mutable_sender
FUNC e72d0 19 0 FunMulticastMessage::has_error_code
FUNC e72ea 1d 0 FunMulticastMessage::set_has_error_code
FUNC e7308 11 0 FunMulticastMessage::error_code
FUNC e731a 54 0 FunMulticastMessage::set_error_code
FUNC e736e 1e 0 FunMulticastMessage::channels_size
FUNC e738c 26 0 FunMulticastMessage::channels
FUNC e73b2 1e 0 FunMulticastMessage::add_channels
FUNC e73d0 19 0 FunChatMessage::has_text
FUNC e73ea 1d 0 FunChatMessage::set_has_text
FUNC e7408 12 0 FunChatMessage::text
FUNC e741a 88 0 FunChatMessage::set_text
FUNC e74a2 75 0 FunChatMessage::mutable_text
FUNC e7518 7e 0 google::protobuf::io::CodedInputStream::ReadVarint32
FUNC e7596 12 0 google::protobuf::io::CodedInputStream::ConsumedEntireMessage
FUNC e75a8 3e 0 google::protobuf::io::CodedOutputStream::WriteVarint32SignExtendedToArray
FUNC e75e6 24 0 google::protobuf::io::CodedOutputStream::VarintSize32SignExtended
FUNC e760a 2e 0 google::protobuf::io::CodedInputStream::IncrementRecursionDepth
FUNC e7638 26 0 google::protobuf::io::CodedInputStream::DecrementRecursionDepth
FUNC e765e 25 0 google::protobuf::internal::WireFormatLite::ReadPrimitive<unsigned int, (google::protobuf::internal::WireFormatLite::FieldType)13u>
FUNC e7684 46 0 google::protobuf::internal::WireFormatLite::ReadPrimitive<bool, (google::protobuf::internal::WireFormatLite::FieldType)8u>
FUNC e76ca 43 0 google::protobuf::internal::WireFormatLite::ReadPrimitive<int, (google::protobuf::internal::WireFormatLite::FieldType)14u>
FUNC e770e 17 0 google::protobuf::internal::WireFormatLite::UInt32Size
FUNC e7726 17 0 google::protobuf::internal::WireFormatLite::EnumSize
FUNC e773e 1c 0 google::protobuf::internal::WireFormatLite::LengthDelimitedSize
FUNC e775a 13 0 StaticDescriptorInitializer_funapi_2fservice_2fmulticast_5fmessage_2eproto::StaticDescriptorInitializer_funapi_2fservice_2fmulticast_5fmessage_2eproto
FUNC e776e 1a 0 google::protobuf::RepeatedPtrField<FunMulticastChannelListMessage>::size
FUNC e7788 1a 0 google::protobuf::RepeatedPtrField<FunMulticastChannelListMessage>::Clear
FUNC e77a2 22 0 google::protobuf::RepeatedPtrField<FunMulticastChannelListMessage>::Get
FUNC e77c4 1a 0 google::protobuf::RepeatedPtrField<FunMulticastChannelListMessage>::Add
FUNC e77de 39 0 google::protobuf::internal::dynamic_cast_if_available<const FunMulticastChannelListMessage*, const google::protobuf::Message*>
FUNC e7818 1a 0 google::protobuf::RepeatedPtrField<FunMulticastChannelListMessage>::RepeatedPtrField
FUNC e7832 1a 0 google::protobuf::RepeatedPtrField<FunMulticastChannelListMessage>::~RepeatedPtrField
FUNC e784c c3 0 google::protobuf::internal::WireFormatLite::ReadMessageNoVirtual<FunMulticastChannelListMessage>
FUNC e7910 d6 0 google::protobuf::internal::WireFormatLite::WriteMessageNoVirtualToArray<FunMulticastChannelListMessage>
FUNC e79e6 21 0 google::protobuf::internal::WireFormatLite::MessageSizeNoVirtual<FunMulticastChannelListMessage>
FUNC e7a07 39 0 google::protobuf::internal::dynamic_cast_if_available<const FunMulticastMessage*, const google::protobuf::Message*>
FUNC e7a40 25 0 google::protobuf::RepeatedPtrField<FunMulticastChannelListMessage>::MergeFrom
FUNC e7a65 e 0 std::move<bool&>
FUNC e7a73 4e 0 std::swap<bool>
FUNC e7ac2 25 0 google::protobuf::RepeatedPtrField<FunMulticastChannelListMessage>::Swap
FUNC e7ae7 39 0 google::protobuf::internal::dynamic_cast_if_available<const FunChatMessage*, const google::protobuf::Message*>
FUNC e7b20 26 0 google::protobuf::internal::ExtensionIdentifier<FunMulticastMessage, google::protobuf::internal::MessageTypeTraits<FunChatMessage>, 11u, false>::ExtensionIdentifier
FUNC e7b46 26 0 google::protobuf::internal::ExtensionIdentifier<FunMessage, google::protobuf::internal::MessageTypeTraits<FunMulticastMessage>, 11u, false>::ExtensionIdentifier
FUNC e7b6c 59 0 google::protobuf::internal::RepeatedPtrFieldBase::Clear<google::protobuf::RepeatedPtrField<FunMulticastChannelListMessage>::TypeHandler>
FUNC e7bc6 e1 0 google::protobuf::internal::RepeatedPtrFieldBase::Get<google::protobuf::RepeatedPtrField<FunMulticastChannelListMessage>::TypeHandler>
FUNC e7ca8 bf 0 google::protobuf::internal::RepeatedPtrFieldBase::Add<google::protobuf::RepeatedPtrField<FunMulticastChannelListMessage>::TypeHandler>
FUNC e7d68 69 0 google::protobuf::internal::RepeatedPtrFieldBase::Destroy<google::protobuf::RepeatedPtrField<FunMulticastChannelListMessage>::TypeHandler>
FUNC e7dd2 7a 0 google::protobuf::internal::RepeatedPtrFieldBase::MergeFrom<google::protobuf::RepeatedPtrField<FunMulticastChannelListMessage>::TypeHandler>
FUNC e7e4c 25 0 google::protobuf::internal::GenericTypeHandler<FunMulticastChannelListMessage>::Clear
FUNC e7e71 e 0 google::protobuf::internal::RepeatedPtrFieldBase::cast<google::protobuf::RepeatedPtrField<FunMulticastChannelListMessage>::TypeHandler>
FUNC e7e7f 3c 0 google::protobuf::internal::GenericTypeHandler<FunMulticastChannelListMessage>::New
FUNC e7ebb 2c 0 google::protobuf::internal::GenericTypeHandler<FunMulticastChannelListMessage>::Delete
FUNC e7ee7 25 0 google::protobuf::internal::GenericTypeHandler<FunMulticastChannelListMessage>::Merge
FUNC e7f0c 1d2 0 protobuf_AssignDesc_funapi_2fmanagement_2fmaintenance_5fmessage_2eproto
FUNC e80de 1c 0 protobuf_AssignDescriptorsOnce
FUNC e80fa 2d 0 protobuf_RegisterTypes
FUNC e8127 61 0 protobuf_ShutdownFile_funapi_2fmanagement_2fmaintenance_5fmessage_2eproto
FUNC e8188 e7 0 protobuf_AddDesc_funapi_2fmanagement_2fmaintenance_5fmessage_2eproto
FUNC e8270 7f 0 MaintenanceMessage::MaintenanceMessage
FUNC e82f0 a 0 MaintenanceMessage::InitAsDefaultInstance
FUNC e82fa 96 0 MaintenanceMessage::MaintenanceMessage
FUNC e8390 60 0 MaintenanceMessage::SharedCtor
FUNC e83f0 5d 0 MaintenanceMessage::~MaintenanceMessage
FUNC e844e 26 0 MaintenanceMessage::~MaintenanceMessage
FUNC e8474 a7 0 MaintenanceMessage::SharedDtor
FUNC e851c 17 0 MaintenanceMessage::SetCachedSize
FUNC e8534 12 0 MaintenanceMessage::descriptor
FUNC e8546 24 0 MaintenanceMessage::default_instance
FUNC e856a 48 0 MaintenanceMessage::New
FUNC e85b2 ea 0 MaintenanceMessage::Clear
FUNC e869c 4bf 0 MaintenanceMessage::MergePartialFromCodedStream
FUNC e8b5c 180 0 MaintenanceMessage::SerializeWithCachedSizes
FUNC e8cdc 488 0 MaintenanceMessage::SerializeWithCachedSizesToArray
FUNC e9164 e0 0 MaintenanceMessage::ByteSize
FUNC e9244 fb 0 MaintenanceMessage::MergeFrom
FUNC e9340 17e 0 MaintenanceMessage::MergeFrom
FUNC e94be 53 0 MaintenanceMessage::CopyFrom
FUNC e9512 48 0 MaintenanceMessage::CopyFrom
FUNC e955a f 0 MaintenanceMessage::IsInitialized
FUNC e956a c2 0 MaintenanceMessage::Swap
FUNC e962c 31 0 MaintenanceMessage::GetMetadata
FUNC e965d 4a 0 __static_initialization_and_destruction_0
FUNC e96a7 15 0 _GLOBAL__sub_I_maintenance_message.pb.cc
FUNC e96bc 12 0 MaintenanceMessage::unknown_fields
FUNC e96ce 12 0 MaintenanceMessage::mutable_unknown_fields
FUNC e96e0 11 0 MaintenanceMessage::GetCachedSize
FUNC e96f2 19 0 MaintenanceMessage::has_date_start
FUNC e970c 1d 0 MaintenanceMessage::set_has_date_start
FUNC e972a 12 0 MaintenanceMessage::date_start
FUNC e973c 88 0 MaintenanceMessage::set_date_start
FUNC e97c4 75 0 MaintenanceMessage::mutable_date_start
FUNC e983a 19 0 MaintenanceMessage::has_date_end
FUNC e9854 1d 0 MaintenanceMessage::set_has_date_end
FUNC e9872 12 0 MaintenanceMessage::date_end
FUNC e9884 88 0 MaintenanceMessage::set_date_end
FUNC e990c 75 0 MaintenanceMessage::mutable_date_end
FUNC e9982 19 0 MaintenanceMessage::has_messages
FUNC e999c 1d 0 MaintenanceMessage::set_has_messages
FUNC e99ba 12 0 MaintenanceMessage::messages
FUNC e99cc 88 0 MaintenanceMessage::set_messages
FUNC e9a54 75 0 MaintenanceMessage::mutable_messages
FUNC e9aca 13 0 StaticDescriptorInitializer_funapi_2fmanagement_2fmaintenance_5fmessage_2eproto::StaticDescriptorInitializer_funapi_2fmanagement_2fmaintenance_5fmessage_2eproto
FUNC e9add 39 0 google::protobuf::internal::dynamic_cast_if_available<const MaintenanceMessage*, const google::protobuf::Message*>
FUNC e9b16 26 0 google::protobuf::internal::ExtensionIdentifier<FunMessage, google::protobuf::internal::MessageTypeTraits<MaintenanceMessage>, 11u, false>::ExtensionIdentifier
FUNC e9b3c 1d2 0 protobuf_AssignDesc_funapi_2fnetwork_2fping_5fmessage_2eproto
FUNC e9d0e 1c 0 protobuf_AssignDescriptorsOnce
FUNC e9d2a 2d 0 protobuf_RegisterTypes
FUNC e9d57 61 0 protobuf_ShutdownFile_funapi_2fnetwork_2fping_5fmessage_2eproto
FUNC e9db8 e7 0 protobuf_AddDesc_funapi_2fnetwork_2fping_5fmessage_2eproto
FUNC e9ea0 7f 0 FunPingMessage::FunPingMessage
FUNC e9f20 a 0 FunPingMessage::InitAsDefaultInstance
FUNC e9f2a 96 0 FunPingMessage::FunPingMessage
FUNC e9fc0 4e 0 FunPingMessage::SharedCtor
FUNC ea00e 5d 0 FunPingMessage::~FunPingMessage
FUNC ea06c 26 0 FunPingMessage::~FunPingMessage
FUNC ea092 45 0 FunPingMessage::SharedDtor
FUNC ea0d8 17 0 FunPingMessage::SetCachedSize
FUNC ea0f0 12 0 FunPingMessage::descriptor
FUNC ea102 24 0 FunPingMessage::default_instance
FUNC ea126 48 0 FunPingMessage::New
FUNC ea16e 8a 0 FunPingMessage::Clear
FUNC ea1f8 2c3 0 FunPingMessage::MergePartialFromCodedStream
FUNC ea4bc a2 0 FunPingMessage::SerializeWithCachedSizes
FUNC ea55e 232 0 FunPingMessage::SerializeWithCachedSizesToArray
FUNC ea790 b6 0 FunPingMessage::ByteSize
FUNC ea846 fb 0 FunPingMessage::MergeFrom
FUNC ea942 14c 0 FunPingMessage::MergeFrom
FUNC eaa8e 53 0 FunPingMessage::CopyFrom
FUNC eaae2 48 0 FunPingMessage::CopyFrom
FUNC eab2a 24 0 FunPingMessage::IsInitialized
FUNC eab4e a7 0 FunPingMessage::Swap
FUNC eabf6 31 0 FunPingMessage::GetMetadata
FUNC eac27 4a 0 __static_initialization_and_destruction_0
FUNC eac71 15 0 _GLOBAL__sub_I_ping_message.pb.cc
FUNC eac86 12 0 FunPingMessage::unknown_fields
FUNC eac98 12 0 FunPingMessage::mutable_unknown_fields
FUNC eacaa 11 0 FunPingMessage::GetCachedSize
FUNC eacbc 19 0 FunPingMessage::has_timestamp
FUNC eacd6 1d 0 FunPingMessage::set_has_timestamp
FUNC eacf4 12 0 FunPingMessage::timestamp
FUNC ead06 2a 0 FunPingMessage::set_timestamp
FUNC ead30 19 0 FunPingMessage::has_data
FUNC ead4a 1d 0 FunPingMessage::set_has_data
FUNC ead68 12 0 FunPingMessage::data
FUNC ead7a 88 0 FunPingMessage::set_data
FUNC eae02 75 0 FunPingMessage::mutable_data
FUNC eae78 7f 0 google::protobuf::io::CodedInputStream::ReadVarint64
FUNC eaef8 46 0 google::protobuf::internal::WireFormatLite::ReadPrimitive<long int, (google::protobuf::internal::WireFormatLite::FieldType)3u>
FUNC eaf3e 1a 0 google::protobuf::internal::WireFormatLite::Int64Size
FUNC eaf58 13 0 StaticDescriptorInitializer_funapi_2fnetwork_2fping_5fmessage_2eproto::StaticDescriptorInitializer_funapi_2fnetwork_2fping_5fmessage_2eproto
FUNC eaf6b 39 0 google::protobuf::internal::dynamic_cast_if_available<const FunPingMessage*, const google::protobuf::Message*>
FUNC eafa4 e 0 std::move<long int&>
FUNC eafb2 51 0 std::swap<long int>
FUNC eb004 26 0 google::protobuf::internal::ExtensionIdentifier<FunMessage, google::protobuf::internal::MessageTypeTraits<FunPingMessage>, 11u, false>::ExtensionIdentifier
FUNC eb02a 1d2 0 protobuf_AssignDesc_funapi_2fnetwork_2ffun_5fmessage_2eproto
FUNC eb1fc 1c 0 protobuf_AssignDescriptorsOnce
FUNC eb218 2d 0 protobuf_RegisterTypes
FUNC eb245 61 0 protobuf_ShutdownFile_funapi_2fnetwork_2ffun_5fmessage_2eproto
FUNC eb2a6 b5 0 protobuf_AddDesc_funapi_2fnetwork_2ffun_5fmessage_2eproto
FUNC eb35c a4 0 FunMessage::FunMessage
FUNC eb400 a 0 FunMessage::InitAsDefaultInstance
FUNC eb40a bb 0 FunMessage::FunMessage
FUNC eb4c6 6f 0 FunMessage::SharedCtor
FUNC eb536 6d 0 FunMessage::~FunMessage
FUNC eb5a4 26 0 FunMessage::~FunMessage
FUNC eb5ca 76 0 FunMessage::SharedDtor
FUNC eb640 17 0 FunMessage::SetCachedSize
FUNC eb658 12 0 FunMessage::descriptor
FUNC eb66a 24 0 FunMessage::default_instance
FUNC eb68e 48 0 FunMessage::New
FUNC eb6d6 e4 0 FunMessage::Clear
FUNC eb7ba 77b 0 FunMessage::MergePartialFromCodedStream
FUNC ebf36 1bf 0 FunMessage::SerializeWithCachedSizes
FUNC ec0f6 74e 0 FunMessage::SerializeWithCachedSizesToArray
FUNC ec844 133 0 FunMessage::ByteSize
FUNC ec978 fb 0 FunMessage::MergeFrom
FUNC eca74 1f0 0 FunMessage::MergeFrom
FUNC ecc64 53 0 FunMessage::CopyFrom
FUNC eccb8 48 0 FunMessage::CopyFrom
FUNC ecd00 31 0 FunMessage::IsInitialized
FUNC ecd32 113 0 FunMessage::Swap
FUNC ece46 31 0 FunMessage::GetMetadata
FUNC ece77 2e 0 __static_initialization_and_destruction_0
FUNC ecea5 15 0 _GLOBAL__sub_I_fun_message.pb.cc
FUNC eceba 12 0 FunMessage::unknown_fields
FUNC ececc 12 0 FunMessage::mutable_unknown_fields
FUNC ecede 11 0 FunMessage::GetCachedSize
FUNC ecef0 19 0 FunMessage::has_sid
FUNC ecf0a 1d 0 FunMessage::set_has_sid
FUNC ecf28 12 0 FunMessage::sid
FUNC ecf3a 88 0 FunMessage::set_sid
FUNC ecfc2 75 0 FunMessage::mutable_sid
FUNC ed038 19 0 FunMessage::has_msgtype
FUNC ed052 1d 0 FunMessage::set_has_msgtype
FUNC ed070 12 0 FunMessage::msgtype
FUNC ed082 88 0 FunMessage::set_msgtype
FUNC ed10a 75 0 FunMessage::mutable_msgtype
FUNC ed180 19 0 FunMessage::has_seq
FUNC ed19a 1d 0 FunMessage::set_has_seq
FUNC ed1b8 11 0 FunMessage::seq
FUNC ed1ca 27 0 FunMessage::set_seq
FUNC ed1f2 19 0 FunMessage::has_ack
FUNC ed20c 1d 0 FunMessage::set_has_ack
FUNC ed22a 11 0 FunMessage::ack
FUNC ed23c 27 0 FunMessage::set_ack
FUNC ed264 19 0 FunMessage::has_urgent
FUNC ed27e 1d 0 FunMessage::set_has_urgent
FUNC ed29c 12 0 FunMessage::urgent
FUNC ed2ae 2a 0 FunMessage::set_urgent
FUNC ed2d8 13 0 StaticDescriptorInitializer_funapi_2fnetwork_2ffun_5fmessage_2eproto::StaticDescriptorInitializer_funapi_2fnetwork_2ffun_5fmessage_2eproto
FUNC ed2eb 39 0 google::protobuf::internal::dynamic_cast_if_available<const FunMessage*, const google::protobuf::Message*>
FUNC ed324 85 0 pong::OnSessionOpened
FUNC ed3a9 15f 0 pong::OnSessionClosed
FUNC ed508 a6 0 pong::MatchingCancelledByTransportDetaching
FUNC ed5ae 6f1 0 pong::OnTransportTcpDetached
FUNC edc9f 4aa 0 pong::OnAccountLogin
FUNC ee149 101a 0 pong::OnMatched
FUNC ef163 2bd 0 pong::MatchingCancelledByClientTimeout
FUNC ef5dc 373 0 pong::OnMatchmakingRequested
FUNC ef94f 6ad 0 pong::OnCancelled
FUNC efffc 198 0 pong::OnCancelRequested
FUNC f0194 62f 0 pong::OnReadySignal
FUNC f07c3 1da 0 pong::OnRelayRequested
FUNC f099d b9 0 pong::OnResultRequested
FUNC f0a56 630 0 pong::RegisterEventHandlers
FUNC f10ac 6e 0 boost::function<void(long unsigned int const&, const boost::posix_time::ptime&)>::function<pong::OnMatchmakingRequested(const boost::shared_ptr<fun::Session>&, const fun::Json&)::__lambda0>
FUNC f111a 81 0 boost::function2<void, long unsigned int const&, const boost::posix_time::ptime&>::function2<pong::OnMatchmakingRequested(const boost::shared_ptr<fun::Session>&, const fun::Json&)::__lambda0>
FUNC f119c 9a 0 boost::function2<void, long unsigned int const&, const boost::posix_time::ptime&>::assign_to<pong::OnMatchmakingRequested(const boost::shared_ptr<fun::Session>&, const fun::Json&)::__lambda0>
FUNC f1236 58 0 boost::detail::function::functor_manager<pong::OnMatchmakingRequested(const boost::shared_ptr<fun::Session>&, const fun::Json&)::__lambda0>::manage
FUNC f128e 35 0 boost::detail::function::void_function_obj_invoker2<pong::OnMatchmakingRequested(const boost::shared_ptr<fun::Session>&, const fun::Json&)::__lambda0, void, long unsigned int const&, const boost::posix_time::ptime&>::invoke
FUNC f12c4 75 0 boost::detail::function::basic_vtable2<void, long unsigned int const&, const boost::posix_time::ptime&>::assign_to<pong::OnMatchmakingRequested(const boost::shared_ptr<fun::Session>&, const fun::Json&)::__lambda0>
FUNC f1339 2f 0 boost::detail::function::functor_manager<pong::OnMatchmakingRequested(const boost::shared_ptr<fun::Session>&, const fun::Json&)::__lambda0>::manager
FUNC f1368 81 0 boost::detail::function::basic_vtable2<void, long unsigned int const&, const boost::posix_time::ptime&>::assign_to<pong::OnMatchmakingRequested(const boost::shared_ptr<fun::Session>&, const fun::Json&)::__lambda0>
FUNC f13e9 2b 0 boost::detail::function::functor_manager<pong::OnMatchmakingRequested(const boost::shared_ptr<fun::Session>&, const fun::Json&)::__lambda0>::manager
FUNC f1414 3a 0 boost::addressof<pong::OnMatchmakingRequested(const boost::shared_ptr<fun::Session>&, const fun::Json&)::__lambda0>
FUNC f144e 3b 0 boost::detail::function::basic_vtable2<void, long unsigned int const&, const boost::posix_time::ptime&>::assign_functor<pong::OnMatchmakingRequested(const boost::shared_ptr<fun::Session>&, const fun::Json&)::__lambda0>
FUNC f1489 107 0 boost::detail::function::functor_manager_common<pong::OnMatchmakingRequested(const boost::shared_ptr<fun::Session>&, const fun::Json&)::__lambda0>::manage_small
FUNC f1590 19 0 boost::detail::addr_impl_ref<pong::OnMatchmakingRequested(const boost::shared_ptr<fun::Session>&, const fun::Json&)::__lambda0>::addr_impl_ref
FUNC f15aa 11 0 boost::detail::addr_impl_ref<pong::OnMatchmakingRequested(const boost::shared_ptr<fun::Session>&, const fun::Json&)::__lambda0>::operator pong::OnMatchmakingRequested(const boost::shared_ptr<fun::Session>&, const fun::Json&)::__lambda0&
FUNC f15bb 12 0 boost::detail::addressof_impl<pong::OnMatchmakingRequested(const boost::shared_ptr<fun::Session>&, const fun::Json&)::__lambda0>::f
FUNC f15cd 301 0 __static_initialization_and_destruction_0
FUNC f18ce 15 0 _GLOBAL__sub_I_event_handlers.cc
FUNC f18e3 2c 0 std::char_traits<char>::length
FUNC f1910 25 0 boost::posix_time::time_duration::time_duration
FUNC f1936 25 0 boost::posix_time::time_duration::time_duration
FUNC f195b 21 0 boost::uuids::detail::to_char
FUNC f197c 120 0 boost::uuids::to_string
FUNC f1a9c 3c 0 fun::WallClock::FromMsec
FUNC f1ad8 1e 0 boost::shared_ptr<fun::Session>::~shared_ptr
FUNC f1af6 1a 0 boost::function<void(const std::basic_string<char, std::char_traits<char>, std::allocator<char> >&, fun::MatchmakingClient::CancelResult)>::~function
FUNC f1b10 1a 0 boost::function<void(const std::basic_string<char, std::char_traits<char>, std::allocator<char> >&, const fun::MatchmakingClient::Match&, fun::MatchmakingClient::MatchResult)>::~function
FUNC f1b2a 1a 0 boost::function<void(long unsigned int const&, const boost::posix_time::ptime&)>::~function
FUNC f1b44 1a 0 boost::function<void(const boost::shared_ptr<fun::Session>&)>::~function
FUNC f1b5e 1a 0 boost::function<void(const boost::shared_ptr<fun::Session>&, fun::SessionCloseReason)>::~function
FUNC f1b78 2a 0 fun::JsonSchema::~JsonSchema
FUNC f1ba2 1a 0 boost::function<void(const boost::shared_ptr<fun::Session>&, const fun::Json&)>::~function
FUNC f1bbc 29 0 boost::date_time::time_duration<boost::posix_time::time_duration, boost::date_time::time_resolution_traits<boost::date_time::time_resolution_traits_adapted64_impl, (boost::date_time::time_resolutions)5u, 1000000l, 6u, int> >::time_duration
FUNC f1be6 2c 0 boost::date_time::time_duration<boost::posix_time::time_duration, boost::date_time::time_resolution_traits<boost::date_time::time_resolution_traits_adapted64_impl, (boost::date_time::time_resolutions)5u, 1000000l, 6u, int> >::time_duration
FUNC f1c12 3f 0 boost::date_time::subsecond_duration<boost::posix_time::time_duration, 1000l>::subsecond_duration
FUNC f1c52 40 0 boost::shared_ptr<fun::Session>::operator->
FUNC f1c92 49 0 std::operator+<char, std::char_traits<char>, std::allocator<char> >
FUNC f1cdb a4 0 std::operator+<char, std::char_traits<char>, std::allocator<char> >
FUNC f1d7f 47 0 std::operator+<char, std::char_traits<char>, std::allocator<char> >
FUNC f1dc6 17 0 boost::shared_ptr<fun::Session>::operator bool
FUNC f1ddd 2a 0 std::operator==<char, std::char_traits<char>, std::allocator<char> >
FUNC f1e08 2d 0 boost::function<void(const std::basic_string<char, std::char_traits<char>, std::allocator<char> >&, fun::MatchmakingClient::CancelResult)>::function<void (*)(const std::basic_string<char>&, fun::MatchmakingClient::CancelResult)>
FUNC f1e36 1a 0 boost::function2<void, const std::basic_string<char, std::char_traits<char>, std::allocator<char> >&, fun::MatchmakingClient::CancelResult>::~function2
FUNC f1e50 17 0 boost::shared_ptr<fun::Session>::operator!
FUNC f1e68 2d 0 boost::function<void(const std::basic_string<char, std::char_traits<char>, std::allocator<char> >&, const fun::MatchmakingClient::Match&, fun::MatchmakingClient::MatchResult)>::function<void (*)(const std::basic_string<char>&, const fun::MatchmakingClient::Match&, fun::MatchmakingClient::MatchResult)>
FUNC f1e96 1a 0 boost::function3<void, const std::basic_string<char, std::char_traits<char>, std::allocator<char> >&, const fun::MatchmakingClient::Match&, fun::MatchmakingClient::MatchResult>::~function3
FUNC f1eb0 3f 0 boost::date_time::time_duration<boost::posix_time::time_duration, boost::date_time::time_resolution_traits<boost::date_time::time_resolution_traits_adapted64_impl, (boost::date_time::time_resolutions)5u, 1000000l, 6u, int> >::operator+
FUNC f1ef0 3b 0 boost::shared_ptr<fun::Session>::shared_ptr
FUNC f1f2c 1a 0 boost::function2<void, long unsigned int const&, const boost::posix_time::ptime&>::~function2
FUNC f1f46 2d 0 boost::function<void(const boost::shared_ptr<fun::Session>&)>::function<void (*)(const boost::shared_ptr<fun::Session>&)>
FUNC f1f74 1a 0 boost::function1<void, const boost::shared_ptr<fun::Session>&>::~function1
FUNC f1f8e 2d 0 boost::function<void(const boost::shared_ptr<fun::Session>&, fun::SessionCloseReason)>::function<void (*)(const boost::shared_ptr<fun::Session>&, fun::SessionCloseReason)>
FUNC f1fbc 1a 0 boost::function2<void, const boost::shared_ptr<fun::Session>&, fun::SessionCloseReason>::~function2
FUNC f1fd6 43 0 std::vector<fun::JsonSchema, std::allocator<fun::JsonSchema> >::~vector
FUNC f201a 2d 0 boost::function<void(const boost::shared_ptr<fun::Session>&, const fun::Json&)>::function<void (*)(const boost::shared_ptr<fun::Session>&, const fun::Json&)>
FUNC f2048 1a 0 boost::function2<void, const boost::shared_ptr<fun::Session>&, const fun::Json&>::~function2
FUNC f2062 177 0 boost::date_time::int_adapter<long int>::operator+<long int>
FUNC f21da a 0 std::binary_function<const std::basic_string<char, std::char_traits<char>, std::allocator<char> >&, fun::MatchmakingClient::CancelResult, void>::binary_function
FUNC f21e4 40 0 boost::function2<void, const std::basic_string<char, std::char_traits<char>, std::allocator<char> >&, fun::MatchmakingClient::CancelResult>::function2<void (*)(const std::basic_string<char>&, fun::MatchmakingClient::CancelResult)>
FUNC f2224 5d 0 boost::function2<void, const std::basic_string<char, std::char_traits<char>, std::allocator<char> >&, fun::MatchmakingClient::CancelResult>::clear
FUNC f2282 34 0 boost::function3<void, const std::basic_string<char, std::char_traits<char>, std::allocator<char> >&, const fun::MatchmakingClient::Match&, fun::MatchmakingClient::MatchResult>::function3<void (*)(const std::basic_string<char>&, const fun::MatchmakingClient::Match&, fun::MatchmakingClient::MatchResult)>
FUNC f22b6 5d 0 boost::function3<void, const std::basic_string<char, std::char_traits<char>, std::allocator<char> >&, const fun::MatchmakingClient::Match&, fun::MatchmakingClient::MatchResult>::clear
FUNC f2314 a 0 std::binary_function<long unsigned int const&, const boost::posix_time::ptime&, void>::binary_function
FUNC f231e 5d 0 boost::function2<void, long unsigned int const&, const boost::posix_time::ptime&>::clear
FUNC f237c a 0 std::unary_function<const boost::shared_ptr<fun::Session>&, void>::unary_function
FUNC f2386 40 0 boost::function1<void, const boost::shared_ptr<fun::Session>&>::function1<void (*)(const boost::shared_ptr<fun::Session>&)>
FUNC f23c6 5d 0 boost::function1<void, const boost::shared_ptr<fun::Session>&>::clear
FUNC f2424 a 0 std::binary_function<const boost::shared_ptr<fun::Session>&, fun::SessionCloseReason, void>::binary_function
FUNC f242e 40 0 boost::function2<void, const boost::shared_ptr<fun::Session>&, fun::SessionCloseReason>::function2<void (*)(const boost::shared_ptr<fun::Session>&, fun::SessionCloseReason)>
FUNC f246e 5d 0 boost::function2<void, const boost::shared_ptr<fun::Session>&, fun::SessionCloseReason>::clear
FUNC f24cc 1a 0 std::_Vector_base<fun::JsonSchema, std::allocator<fun::JsonSchema> >::_Vector_impl::~_Vector_impl
FUNC f24e6 60 0 std::_Vector_base<fun::JsonSchema, std::allocator<fun::JsonSchema> >::~_Vector_base
FUNC f2546 e 0 std::_Vector_base<fun::JsonSchema, std::allocator<fun::JsonSchema> >::_M_get_Tp_allocator
FUNC f2554 29 0 std::_Destroy<fun::JsonSchema*, fun::JsonSchema>
FUNC f257e a 0 std::binary_function<const boost::shared_ptr<fun::Session>&, const fun::Json&, void>::binary_function
FUNC f2588 40 0 boost::function2<void, const boost::shared_ptr<fun::Session>&, const fun::Json&>::function2<void (*)(const boost::shared_ptr<fun::Session>&, const fun::Json&)>
FUNC f25c8 5d 0 boost::function2<void, const boost::shared_ptr<fun::Session>&, const fun::Json&>::clear
FUNC f2626 5c 0 boost::function2<void, const std::basic_string<char, std::char_traits<char>, std::allocator<char> >&, fun::MatchmakingClient::CancelResult>::assign_to<void (*)(const std::basic_string<char>&, fun::MatchmakingClient::CancelResult)>
FUNC f2682 15 0 boost::function2<void, const std::basic_string<char, std::char_traits<char>, std::allocator<char> >&, fun::MatchmakingClient::CancelResult>::get_vtable
FUNC f2698 37 0 boost::detail::function::basic_vtable2<void, const std::basic_string<char, std::char_traits<char>, std::allocator<char> >&, fun::MatchmakingClient::CancelResult>::clear
FUNC f26d0 5c 0 boost::function3<void, const std::basic_string<char, std::char_traits<char>, std::allocator<char> >&, const fun::MatchmakingClient::Match&, fun::MatchmakingClient::MatchResult>::assign_to<void (*)(const std::basic_string<char>&, const fun::MatchmakingClient::Match&, fun::MatchmakingClient::MatchResult)>
FUNC f272c 15 0 boost::function3<void, const std::basic_string<char, std::char_traits<char>, std::allocator<char> >&, const fun::MatchmakingClient::Match&, fun::MatchmakingClient::MatchResult>::get_vtable
FUNC f2742 37 0 boost::detail::function::basic_vtable3<void, const std::basic_string<char, std::char_traits<char>, std::allocator<char> >&, const fun::MatchmakingClient::Match&, fun::MatchmakingClient::MatchResult>::clear
FUNC f277a 15 0 boost::function2<void, long unsigned int const&, const boost::posix_time::ptime&>::get_vtable
FUNC f2790 37 0 boost::detail::function::basic_vtable2<void, long unsigned int const&, const boost::posix_time::ptime&>::clear
FUNC f27c8 5c 0 boost::function1<void, const boost::shared_ptr<fun::Session>&>::assign_to<void (*)(const boost::shared_ptr<fun::Session>&)>
FUNC f2824 15 0 boost::function1<void, const boost::shared_ptr<fun::Session>&>::get_vtable
FUNC f283a 37 0 boost::detail::function::basic_vtable1<void, const boost::shared_ptr<fun::Session>&>::clear
FUNC f2872 5c 0 boost::function2<void, const boost::shared_ptr<fun::Session>&, fun::SessionCloseReason>::assign_to<void (*)(const boost::shared_ptr<fun::Session>&, fun::SessionCloseReason)>
FUNC f28ce 15 0 boost::function2<void, const boost::shared_ptr<fun::Session>&, fun::SessionCloseReason>::get_vtable
FUNC f28e4 37 0 boost::detail::function::basic_vtable2<void, const boost::shared_ptr<fun::Session>&, fun::SessionCloseReason>::clear
FUNC f291c 1a 0 std::allocator<fun::JsonSchema>::~allocator
FUNC f2936 34 0 std::_Vector_base<fun::JsonSchema, std::allocator<fun::JsonSchema> >::_M_deallocate
FUNC f296a 25 0 std::_Destroy<fun::JsonSchema*>
FUNC f2990 5c 0 boost::function2<void, const boost::shared_ptr<fun::Session>&, const fun::Json&>::assign_to<void (*)(const boost::shared_ptr<fun::Session>&, const fun::Json&)>
FUNC f29ec 15 0 boost::function2<void, const boost::shared_ptr<fun::Session>&, const fun::Json&>::get_vtable
FUNC f2a02 37 0 boost::detail::function::basic_vtable2<void, const boost::shared_ptr<fun::Session>&, const fun::Json&>::clear
FUNC f2a39 58 0 boost::detail::function::functor_manager<void (*)(const std::basic_string<char, std::char_traits<char>, std::allocator<char> >&, fun::MatchmakingClient::CancelResult)>::manage
FUNC f2a91 32 0 boost::detail::function::void_function_invoker2<void (*)(const std::basic_string<char, std::char_traits<char>, std::allocator<char> >&, fun::MatchmakingClient::CancelResult), void, const std::basic_string<char, std::char_traits<char>, std::allocator<char> >&, fun::MatchmakingClient::CancelResult>::invoke
FUNC f2ac4 31 0 boost::detail::function::basic_vtable2<void, const std::basic_string<char, std::char_traits<char>, std::allocator<char> >&, fun::MatchmakingClient::CancelResult>::assign_to<void (*)(const std::basic_string<char>&, fun::MatchmakingClient::CancelResult)>
FUNC f2af5 58 0 boost::detail::function::functor_manager<void (*)(const std::basic_string<char, std::char_traits<char>, std::allocator<char> >&, const fun::MatchmakingClient::Match&, fun::MatchmakingClient::MatchResult)>::manage
FUNC f2b4d 38 0 boost::detail::function::void_function_invoker3<void (*)(const std::basic_string<char, std::char_traits<char>, std::allocator<char> >&, const fun::MatchmakingClient::Match&, fun::MatchmakingClient::MatchResult), void, const std::basic_string<char, std::char_traits<char>, std::allocator<char> >&, const fun::MatchmakingClient::Match&, fun::MatchmakingClient::MatchResult>::invoke
FUNC f2b86 31 0 boost::detail::function::basic_vtable3<void, const std::basic_string<char, std::char_traits<char>, std::allocator<char> >&, const fun::MatchmakingClient::Match&, fun::MatchmakingClient::MatchResult>::assign_to<void (*)(const std::basic_string<char>&, const fun::MatchmakingClient::Match&, fun::MatchmakingClient::MatchResult)>
FUNC f2bb7 58 0 boost::detail::function::functor_manager<void (*)(const boost::shared_ptr<fun::Session>&)>::manage
FUNC f2c0f 2a 0 boost::detail::function::void_function_invoker1<void (*)(const boost::shared_ptr<fun::Session>&), void, const boost::shared_ptr<fun::Session>&>::invoke
FUNC f2c3a 31 0 boost::detail::function::basic_vtable1<void, const boost::shared_ptr<fun::Session>&>::assign_to<void (*)(const boost::shared_ptr<fun::Session>&)>
FUNC f2c6b 58 0 boost::detail::function::functor_manager<void (*)(const boost::shared_ptr<fun::Session>&, fun::SessionCloseReason)>::manage
FUNC f2cc3 32 0 boost::detail::function::void_function_invoker2<void (*)(const boost::shared_ptr<fun::Session>&, fun::SessionCloseReason), void, const boost::shared_ptr<fun::Session>&, fun::SessionCloseReason>::invoke
FUNC f2cf6 31 0 boost::detail::function::basic_vtable2<void, const boost::shared_ptr<fun::Session>&, fun::SessionCloseReason>::assign_to<void (*)(const boost::shared_ptr<fun::Session>&, fun::SessionCloseReason)>
FUNC f2d28 a 0 __gnu_cxx::new_allocator<fun::JsonSchema>::~new_allocator
FUNC f2d32 22 0 __gnu_cxx::new_allocator<fun::JsonSchema>::deallocate
FUNC f2d54 37 0 std::_Destroy_aux<false>::__destroy<fun::JsonSchema*>
FUNC f2d8b 58 0 boost::detail::function::functor_manager<void (*)(const boost::shared_ptr<fun::Session>&, const fun::Json&)>::manage
FUNC f2de3 35 0 boost::detail::function::void_function_invoker2<void (*)(const boost::shared_ptr<fun::Session>&, const fun::Json&), void, const boost::shared_ptr<fun::Session>&, const fun::Json&>::invoke
FUNC f2e18 31 0 boost::detail::function::basic_vtable2<void, const boost::shared_ptr<fun::Session>&, const fun::Json&>::assign_to<void (*)(const boost::shared_ptr<fun::Session>&, const fun::Json&)>
FUNC f2e49 2b 0 boost::detail::function::functor_manager<void (*)(const std::basic_string<char, std::char_traits<char>, std::allocator<char> >&, fun::MatchmakingClient::CancelResult)>::manager
FUNC f2e74 47 0 boost::detail::function::basic_vtable2<void, const std::basic_string<char, std::char_traits<char>, std::allocator<char> >&, fun::MatchmakingClient::CancelResult>::assign_to<void (*)(const std::basic_string<char>&, fun::MatchmakingClient::CancelResult)>
FUNC f2ebb 2b 0 boost::detail::function::functor_manager<void (*)(const std::basic_string<char, std::char_traits<char>, std::allocator<char> >&, const fun::MatchmakingClient::Match&, fun::MatchmakingClient::MatchResult)>::manager
FUNC f2ee6 47 0 boost::detail::function::basic_vtable3<void, const std::basic_string<char, std::char_traits<char>, std::allocator<char> >&, const fun::MatchmakingClient::Match&, fun::MatchmakingClient::MatchResult>::assign_to<void (*)(const std::basic_string<char>&, const fun::MatchmakingClient::Match&, fun::MatchmakingClient::MatchResult)>
FUNC f2f2d 2b 0 boost::detail::function::functor_manager<void (*)(const boost::shared_ptr<fun::Session>&)>::manager
FUNC f2f58 47 0 boost::detail::function::basic_vtable1<void, const boost::shared_ptr<fun::Session>&>::assign_to<void (*)(const boost::shared_ptr<fun::Session>&)>
FUNC f2f9f 2b 0 boost::detail::function::functor_manager<void (*)(const boost::shared_ptr<fun::Session>&, fun::SessionCloseReason)>::manager
FUNC f2fca 47 0 boost::detail::function::basic_vtable2<void, const boost::shared_ptr<fun::Session>&, fun::SessionCloseReason>::assign_to<void (*)(const boost::shared_ptr<fun::Session>&, fun::SessionCloseReason)>
FUNC f3011 e 0 std::__addressof<fun::JsonSchema>
FUNC f301f 1a 0 std::_Destroy<fun::JsonSchema>
FUNC f3039 2b 0 boost::detail::function::functor_manager<void (*)(const boost::shared_ptr<fun::Session>&, const fun::Json&)>::manager
FUNC f3064 47 0 boost::detail::function::basic_vtable2<void, const boost::shared_ptr<fun::Session>&, const fun::Json&>::assign_to<void (*)(const boost::shared_ptr<fun::Session>&, const fun::Json&)>
FUNC f30ab e6 0 boost::detail::function::functor_manager_common<void (*)(const std::basic_string<char, std::char_traits<char>, std::allocator<char> >&, fun::MatchmakingClient::CancelResult)>::manage_ptr
FUNC f3191 e6 0 boost::detail::function::functor_manager_common<void (*)(const std::basic_string<char, std::char_traits<char>, std::allocator<char> >&, const fun::MatchmakingClient::Match&, fun::MatchmakingClient::MatchResult)>::manage_ptr
FUNC f3277 e6 0 boost::detail::function::functor_manager_common<void (*)(const boost::shared_ptr<fun::Session>&)>::manage_ptr
FUNC f335d e6 0 boost::detail::function::functor_manager_common<void (*)(const boost::shared_ptr<fun::Session>&, fun::SessionCloseReason)>::manage_ptr
FUNC f3443 e6 0 boost::detail::function::functor_manager_common<void (*)(const boost::shared_ptr<fun::Session>&, const fun::Json&)>::manage_ptr
FUNC f3529 418 0 PongServer::Install
FUNC f3941 ac 0 PongServer::CheckMatch
FUNC f39ed ad 0 PongServer::CheckCompletion
FUNC f3a9a 1eb 0 PongServer::OnJoined
FUNC f3c85 e 0 PongServer::OnLeft
FUNC f3c93 b 0 PongServer::Start
FUNC f3c9e b 0 PongServer::Uninstall
FUNC f3ca9 1a 0 PongServer_install
FUNC f3cc3 b 0 PongServer_uninstall
FUNC f3cce b 0 PongServer_start
FUNC f3cd9 449 0 __static_initialization_and_destruction_0
FUNC f4122 15 0 _GLOBAL__sub_I_pong_server.cc
FUNC f4137 9f 0 fLS::dont_pass0toDEFINE_string
FUNC f41d6 1a 0 boost::function<bool(const fun::MatchmakingClient::Player&, const fun::MatchmakingClient::Match&)>::~function
FUNC f41f0 1a 0 boost::function<fun::MatchmakingServer::MatchState(const fun::MatchmakingClient::Match&)>::~function
FUNC f420a 1a 0 boost::function<void(const fun::MatchmakingClient::Player&, fun::MatchmakingClient::Match*)>::~function
FUNC f4224 2d 0 boost::function<bool(const fun::MatchmakingClient::Player&, const fun::MatchmakingClient::Match&)>::function<bool (*)(const fun::MatchmakingClient::Player&, const fun::MatchmakingClient::Match&)>
FUNC f4252 1a 0 boost::function2<bool, const fun::MatchmakingClient::Player&, const fun::MatchmakingClient::Match&>::~function2
FUNC f426c 2d 0 boost::function<fun::MatchmakingServer::MatchState(const fun::MatchmakingClient::Match&)>::function<fun::MatchmakingServer::MatchState (*)(const fun::MatchmakingClient::Match&)>
FUNC f429a 1a 0 boost::function1<fun::MatchmakingServer::MatchState, const fun::MatchmakingClient::Match&>::~function1
FUNC f42b4 2d 0 boost::function<void(const fun::MatchmakingClient::Player&, fun::MatchmakingClient::Match*)>::function<void (*)(const fun::MatchmakingClient::Player&, fun::MatchmakingClient::Match*)>
FUNC f42e2 1a 0 boost::function2<void, const fun::MatchmakingClient::Player&, fun::MatchmakingClient::Match*>::~function2
FUNC f42fc 37 0 std::vector<fun::MatchmakingClient::Player, std::allocator<fun::MatchmakingClient::Player> >::size
FUNC f4334 a 0 std::binary_function<const fun::MatchmakingClient::Player&, const fun::MatchmakingClient::Match&, bool>::binary_function
FUNC f433e 40 0 boost::function2<bool, const fun::MatchmakingClient::Player&, const fun::MatchmakingClient::Match&>::function2<bool (*)(const fun::MatchmakingClient::Player&, const fun::MatchmakingClient::Match&)>
FUNC f437e 5d 0 boost::function2<bool, const fun::MatchmakingClient::Player&, const fun::MatchmakingClient::Match&>::clear
FUNC f43dc a 0 std::unary_function<const fun::MatchmakingClient::Match&, fun::MatchmakingServer::MatchState>::unary_function
FUNC f43e6 40 0 boost::function1<fun::MatchmakingServer::MatchState, const fun::MatchmakingClient::Match&>::function1<fun::MatchmakingServer::MatchState (*)(const fun::MatchmakingClient::Match&)>
FUNC f4426 5d 0 boost::function1<fun::MatchmakingServer::MatchState, const fun::MatchmakingClient::Match&>::clear
FUNC f4484 a 0 std::binary_function<const fun::MatchmakingClient::Player&, fun::MatchmakingClient::Match*, void>::binary_function
FUNC f448e 40 0 boost::function2<void, const fun::MatchmakingClient::Player&, fun::MatchmakingClient::Match*>::function2<void (*)(const fun::MatchmakingClient::Player&, fun::MatchmakingClient::Match*)>
FUNC f44ce 5d 0 boost::function2<void, const fun::MatchmakingClient::Player&, fun::MatchmakingClient::Match*>::clear
FUNC f452c 5c 0 boost::function2<bool, const fun::MatchmakingClient::Player&, const fun::MatchmakingClient::Match&>::assign_to<bool (*)(const fun::MatchmakingClient::Player&, const fun::MatchmakingClient::Match&)>
FUNC f4588 15 0 boost::function2<bool, const fun::MatchmakingClient::Player&, const fun::MatchmakingClient::Match&>::get_vtable
FUNC f459e 37 0 boost::detail::function::basic_vtable2<bool, const fun::MatchmakingClient::Player&, const fun::MatchmakingClient::Match&>::clear
FUNC f45d6 5c 0 boost::function1<fun::MatchmakingServer::MatchState, const fun::MatchmakingClient::Match&>::assign_to<fun::MatchmakingServer::MatchState (*)(const fun::MatchmakingClient::Match&)>
FUNC f4632 15 0 boost::function1<fun::MatchmakingServer::MatchState, const fun::MatchmakingClient::Match&>::get_vtable
FUNC f4648 37 0 boost::detail::function::basic_vtable1<fun::MatchmakingServer::MatchState, const fun::MatchmakingClient::Match&>::clear
FUNC f4680 5c 0 boost::function2<void, const fun::MatchmakingClient::Player&, fun::MatchmakingClient::Match*>::assign_to<void (*)(const fun::MatchmakingClient::Player&, fun::MatchmakingClient::Match*)>
FUNC f46dc 15 0 boost::function2<void, const fun::MatchmakingClient::Player&, fun::MatchmakingClient::Match*>::get_vtable
FUNC f46f2 37 0 boost::detail::function::basic_vtable2<void, const fun::MatchmakingClient::Player&, fun::MatchmakingClient::Match*>::clear
FUNC f4729 58 0 boost::detail::function::functor_manager<bool (*)(const fun::MatchmakingClient::Player&, const fun::MatchmakingClient::Match&)>::manage
FUNC f4781 35 0 boost::detail::function::function_invoker2<bool (*)(const fun::MatchmakingClient::Player&, const fun::MatchmakingClient::Match&), bool, const fun::MatchmakingClient::Player&, const fun::MatchmakingClient::Match&>::invoke
FUNC f47b6 31 0 boost::detail::function::basic_vtable2<bool, const fun::MatchmakingClient::Player&, const fun::MatchmakingClient::Match&>::assign_to<bool (*)(const fun::MatchmakingClient::Player&, const fun::MatchmakingClient::Match&)>
FUNC f47e7 58 0 boost::detail::function::functor_manager<fun::MatchmakingServer::MatchState (*)(const fun::MatchmakingClient::Match&)>::manage
FUNC f483f 2a 0 boost::detail::function::function_invoker1<fun::MatchmakingServer::MatchState (*)(const fun::MatchmakingClient::Match&), fun::MatchmakingServer::MatchState, const fun::MatchmakingClient::Match&>::invoke
FUNC f486a 31 0 boost::detail::function::basic_vtable1<fun::MatchmakingServer::MatchState, const fun::MatchmakingClient::Match&>::assign_to<fun::MatchmakingServer::MatchState (*)(const fun::MatchmakingClient::Match&)>
FUNC f489b 58 0 boost::detail::function::functor_manager<void (*)(const fun::MatchmakingClient::Player&, fun::MatchmakingClient::Match*)>::manage
FUNC f48f3 35 0 boost::detail::function::void_function_invoker2<void (*)(const fun::MatchmakingClient::Player&, fun::MatchmakingClient::Match*), void, const fun::MatchmakingClient::Player&, fun::MatchmakingClient::Match*>::invoke
FUNC f4928 31 0 boost::detail::function::basic_vtable2<void, const fun::MatchmakingClient::Player&, fun::MatchmakingClient::Match*>::assign_to<void (*)(const fun::MatchmakingClient::Player&, fun::MatchmakingClient::Match*)>
FUNC f4959 2b 0 boost::detail::function::functor_manager<bool (*)(const fun::MatchmakingClient::Player&, const fun::MatchmakingClient::Match&)>::manager
FUNC f4984 47 0 boost::detail::function::basic_vtable2<bool, const fun::MatchmakingClient::Player&, const fun::MatchmakingClient::Match&>::assign_to<bool (*)(const fun::MatchmakingClient::Player&, const fun::MatchmakingClient::Match&)>
FUNC f49cb 2b 0 boost::detail::function::functor_manager<fun::MatchmakingServer::MatchState (*)(const fun::MatchmakingClient::Match&)>::manager
FUNC f49f6 47 0 boost::detail::function::basic_vtable1<fun::MatchmakingServer::MatchState, const fun::MatchmakingClient::Match&>::assign_to<fun::MatchmakingServer::MatchState (*)(const fun::MatchmakingClient::Match&)>
FUNC f4a3d 2b 0 boost::detail::function::functor_manager<void (*)(const fun::MatchmakingClient::Player&, fun::MatchmakingClient::Match*)>::manager
FUNC f4a68 47 0 boost::detail::function::basic_vtable2<void, const fun::MatchmakingClient::Player&, fun::MatchmakingClient::Match*>::assign_to<void (*)(const fun::MatchmakingClient::Player&, fun::MatchmakingClient::Match*)>
FUNC f4aaf e6 0 boost::detail::function::functor_manager_common<bool (*)(const fun::MatchmakingClient::Player&, const fun::MatchmakingClient::Match&)>::manage_ptr
FUNC f4b95 e6 0 boost::detail::function::functor_manager_common<fun::MatchmakingServer::MatchState (*)(const fun::MatchmakingClient::Match&)>::manage_ptr
FUNC f4c7b e6 0 boost::detail::function::functor_manager_common<void (*)(const fun::MatchmakingClient::Player&, fun::MatchmakingClient::Match*)>::manage_ptr
PUBLIC 9ee20 0 _init
PUBLIC aa5c6 0 protobuf_AssignDesc_pong_5fmessages_2eproto()
PUBLIC aa94c 0 protobuf_ShutdownFile_pong_5fmessages_2eproto()
PUBLIC aaa63 0 protobuf_AddDesc_pong_5fmessages_2eproto()
PUBLIC aac38 0 PbufEchoMessage::PbufEchoMessage()
PUBLIC aacb8 0 PbufEchoMessage::InitAsDefaultInstance()
PUBLIC aacc2 0 PbufEchoMessage::PbufEchoMessage(PbufEchoMessage const&)
PUBLIC aad58 0 PbufEchoMessage::SharedCtor()
PUBLIC aad9a 0 PbufEchoMessage::~PbufEchoMessage()
PUBLIC aadf8 0 PbufEchoMessage::~PbufEchoMessage()
PUBLIC aae1e 0 PbufEchoMessage::SharedDtor()
PUBLIC aae64 0 PbufEchoMessage::SetCachedSize(int) const
PUBLIC aae7c 0 PbufEchoMessage::descriptor()
PUBLIC aae8e 0 PbufEchoMessage::default_instance()
PUBLIC aaeb2 0 PbufEchoMessage::New() const
PUBLIC aaefa 0 PbufEchoMessage::Clear()
PUBLIC aaf78 0 PbufEchoMessage::MergePartialFromCodedStream(google::protobuf::io::CodedInputStream*)
PUBLIC ab12a 0 PbufEchoMessage::SerializeWithCachedSizes(google::protobuf::io::CodedOutputStream*) const
PUBLIC ab1de 0 PbufEchoMessage::SerializeWithCachedSizesToArray(unsigned char*) const
PUBLIC ab366 0 PbufEchoMessage::ByteSize() const
PUBLIC ab3f2 0 PbufEchoMessage::MergeFrom(google::protobuf::Message const&)
PUBLIC ab4ee 0 PbufEchoMessage::MergeFrom(PbufEchoMessage const&)
PUBLIC ab60c 0 PbufEchoMessage::CopyFrom(google::protobuf::Message const&)
PUBLIC ab660 0 PbufEchoMessage::CopyFrom(PbufEchoMessage const&)
PUBLIC ab6a8 0 PbufEchoMessage::IsInitialized() const
PUBLIC ab6cc 0 PbufEchoMessage::Swap(PbufEchoMessage*)
PUBLIC ab754 0 PbufEchoMessage::GetMetadata() const
PUBLIC ab786 0 PbufAnotherMessage::PbufAnotherMessage()
PUBLIC ab806 0 PbufAnotherMessage::InitAsDefaultInstance()
PUBLIC ab810 0 PbufAnotherMessage::PbufAnotherMessage(PbufAnotherMessage const&)
PUBLIC ab8a6 0 PbufAnotherMessage::SharedCtor()
PUBLIC ab8e8 0 PbufAnotherMessage::~PbufAnotherMessage()
PUBLIC ab946 0 PbufAnotherMessage::~PbufAnotherMessage()
PUBLIC ab96c 0 PbufAnotherMessage::SharedDtor()
PUBLIC ab9b2 0 PbufAnotherMessage::SetCachedSize(int) const
PUBLIC ab9ca 0 PbufAnotherMessage::descriptor()
PUBLIC ab9dc 0 PbufAnotherMessage::default_instance()
PUBLIC aba00 0 PbufAnotherMessage::New() const
PUBLIC aba48 0 PbufAnotherMessage::Clear()
PUBLIC abac6 0 PbufAnotherMessage::MergePartialFromCodedStream(google::protobuf::io::CodedInputStream*)
PUBLIC abc78 0 PbufAnotherMessage::SerializeWithCachedSizes(google::protobuf::io::CodedOutputStream*) const
PUBLIC abd2c 0 PbufAnotherMessage::SerializeWithCachedSizesToArray(unsigned char*) const
PUBLIC abeb4 0 PbufAnotherMessage::ByteSize() const
PUBLIC abf40 0 PbufAnotherMessage::MergeFrom(google::protobuf::Message const&)
PUBLIC ac03c 0 PbufAnotherMessage::MergeFrom(PbufAnotherMessage const&)
PUBLIC ac15a 0 PbufAnotherMessage::CopyFrom(google::protobuf::Message const&)
PUBLIC ac1ae 0 PbufAnotherMessage::CopyFrom(PbufAnotherMessage const&)
PUBLIC ac1f6 0 PbufAnotherMessage::IsInitialized() const
PUBLIC ac206 0 PbufAnotherMessage::Swap(PbufAnotherMessage*)
PUBLIC ac28e 0 PbufAnotherMessage::GetMetadata() const
PUBLIC ac2c0 0 PbufHelloMessage::PbufHelloMessage()
PUBLIC ac340 0 PbufHelloMessage::InitAsDefaultInstance()
PUBLIC ac34a 0 PbufHelloMessage::PbufHelloMessage(PbufHelloMessage const&)
PUBLIC ac3e0 0 PbufHelloMessage::SharedCtor()
PUBLIC ac422 0 PbufHelloMessage::~PbufHelloMessage()
PUBLIC ac480 0 PbufHelloMessage::~PbufHelloMessage()
PUBLIC ac4a6 0 PbufHelloMessage::SharedDtor()
PUBLIC ac4ec 0 PbufHelloMessage::SetCachedSize(int) const
PUBLIC ac504 0 PbufHelloMessage::descriptor()
PUBLIC ac516 0 PbufHelloMessage::default_instance()
PUBLIC ac53a 0 PbufHelloMessage::New() const
PUBLIC ac582 0 PbufHelloMessage::Clear()
PUBLIC ac600 0 PbufHelloMessage::MergePartialFromCodedStream(google::protobuf::io::CodedInputStream*)
PUBLIC ac7b2 0 PbufHelloMessage::SerializeWithCachedSizes(google::protobuf::io::CodedOutputStream*) const
PUBLIC ac866 0 PbufHelloMessage::SerializeWithCachedSizesToArray(unsigned char*) const
PUBLIC ac9ee 0 PbufHelloMessage::ByteSize() const
PUBLIC aca7a 0 PbufHelloMessage::MergeFrom(google::protobuf::Message const&)
PUBLIC acb76 0 PbufHelloMessage::MergeFrom(PbufHelloMessage const&)
PUBLIC acc94 0 PbufHelloMessage::CopyFrom(google::protobuf::Message const&)
PUBLIC acce8 0 PbufHelloMessage::CopyFrom(PbufHelloMessage const&)
PUBLIC acd30 0 PbufHelloMessage::IsInitialized() const
PUBLIC acd40 0 PbufHelloMessage::Swap(PbufHelloMessage*)
PUBLIC acdc8 0 PbufHelloMessage::GetMetadata() const
PUBLIC ace90 0 google::protobuf::Closure::Closure()
PUBLIC aceac 0 google::protobuf::internal::FunctionClosure0::FunctionClosure0(void (*)(), bool)
PUBLIC acef8 0 google::protobuf::MessageLite::MessageLite()
PUBLIC acf14 0 google::protobuf::FileDescriptor::message_type(int) const
PUBLIC acf42 0 google::protobuf::Message::Message()
PUBLIC acf6e 0 google::protobuf::Message::GetReflection() const
PUBLIC acf98 0 google::protobuf::UnknownFieldSet::Clear()
PUBLIC acfbe 0 google::protobuf::UnknownFieldSet::empty() const
PUBLIC acff8 0 google::protobuf::UnknownFieldSet::Swap(google::protobuf::UnknownFieldSet*)
PUBLIC ad01e 0 PbufEchoMessage::unknown_fields() const
PUBLIC ad030 0 PbufEchoMessage::mutable_unknown_fields()
PUBLIC ad042 0 PbufEchoMessage::GetCachedSize() const
PUBLIC ad054 0 PbufAnotherMessage::unknown_fields() const
PUBLIC ad066 0 PbufAnotherMessage::mutable_unknown_fields()
PUBLIC ad078 0 PbufAnotherMessage::GetCachedSize() const
PUBLIC ad08a 0 PbufHelloMessage::unknown_fields() const
PUBLIC ad09c 0 PbufHelloMessage::mutable_unknown_fields()
PUBLIC ad0ae 0 PbufHelloMessage::GetCachedSize() const
PUBLIC ad0c0 0 PbufEchoMessage::has_msg() const
PUBLIC ad0da 0 PbufEchoMessage::set_has_msg()
PUBLIC ad0f8 0 PbufEchoMessage::msg() const
PUBLIC ad10a 0 PbufEchoMessage::set_msg(std::string const&)
PUBLIC ad192 0 PbufEchoMessage::mutable_msg()
PUBLIC ad208 0 PbufAnotherMessage::has_msg() const
PUBLIC ad222 0 PbufAnotherMessage::set_has_msg()
PUBLIC ad240 0 PbufAnotherMessage::msg() const
PUBLIC ad252 0 PbufAnotherMessage::set_msg(std::string const&)
PUBLIC ad2da 0 PbufAnotherMessage::mutable_msg()
PUBLIC ad350 0 PbufHelloMessage::has_message() const
PUBLIC ad36a 0 PbufHelloMessage::set_has_message()
PUBLIC ad388 0 PbufHelloMessage::message() const
PUBLIC ad39a 0 PbufHelloMessage::set_message(std::string const&)
PUBLIC ad422 0 PbufHelloMessage::mutable_message()
PUBLIC ad497 0 google::protobuf::internal::Acquire_Load(long const volatile*)
PUBLIC ad4b0 0 google::protobuf::GoogleOnceInit(long*, void (*)())
PUBLIC ad532 0 google::protobuf::io::CodedInputStream::ExpectAtEnd()
PUBLIC ad58e 0 google::protobuf::io::CodedOutputStream::WriteVarint32ToArray(unsigned int, unsigned char*)
PUBLIC ad5cc 0 google::protobuf::io::CodedOutputStream::VarintSize32(unsigned int)
PUBLIC ad5f0 0 google::protobuf::io::CodedOutputStream::WriteStringToArray(std::string const&, unsigned char*)
PUBLIC ad630 0 google::protobuf::io::CodedInputStream::Advance(int)
PUBLIC ad656 0 google::protobuf::internal::WireFormatLite::MakeTag(int, google::protobuf::internal::WireFormatLite::WireType)
PUBLIC ad672 0 google::protobuf::internal::WireFormatLite::GetTagWireType(unsigned int)
PUBLIC ad682 0 google::protobuf::internal::WireFormatLite::GetTagFieldNumber(unsigned int)
PUBLIC ad692 0 google::protobuf::internal::WireFormatLite::StringSize(std::string const&)
PUBLIC ad6ca 0 google::protobuf::internal::WireFormat::VerifyUTF8String(char const*, int, google::protobuf::internal::WireFormat::Operation)
PUBLIC ad6f2 0 StaticDescriptorInitializer_pong_5fmessages_2eproto::StaticDescriptorInitializer_pong_5fmessages_2eproto()
PUBLIC ad706 0 std::vector<google::protobuf::UnknownField, std::allocator<google::protobuf::UnknownField> >::empty() const
PUBLIC ad747 0 std::remove_reference<std::vector<google::protobuf::UnknownField, std::allocator<google::protobuf::UnknownField> >*&>::type&& std::move<std::vector<google::protobuf::UnknownField, std::allocator<google::protobuf::UnknownField> >*&>(std::vector<google::protobuf::UnknownField, std::allocator<google::protobuf::UnknownField> >*&)
PUBLIC ad755 0 void std::swap<std::vector<google::protobuf::UnknownField, std::allocator<google::protobuf::UnknownField> >*>(std::vector<google::protobuf::UnknownField, std::allocator<google::protobuf::UnknownField> >*&, std::vector<google::protobuf::UnknownField, std::allocator<google::protobuf::UnknownField> >*&)
PUBLIC ad7a6 0 PbufEchoMessage const* google::protobuf::internal::dynamic_cast_if_available<PbufEchoMessage const*, google::protobuf::Message const*>(google::protobuf::Message const*)
PUBLIC ad7df 0 std::remove_reference<std::string*&>::type&& std::move<std::string*&>(std::string*&)
PUBLIC ad7ed 0 void std::swap<std::string*>(std::string*&, std::string*&)
PUBLIC ad83e 0 std::remove_reference<unsigned int&>::type&& std::move<unsigned int&>(unsigned int&)
PUBLIC ad84c 0 void std::swap<unsigned int>(unsigned int&, unsigned int&)
PUBLIC ad897 0 std::remove_reference<int&>::type&& std::move<int&>(int&)
PUBLIC ad8a5 0 void std::swap<int>(int&, int&)
PUBLIC ad8f0 0 PbufAnotherMessage const* google::protobuf::internal::dynamic_cast_if_available<PbufAnotherMessage const*, google::protobuf::Message const*>(google::protobuf::Message const*)
PUBLIC ad929 0 PbufHelloMessage const* google::protobuf::internal::dynamic_cast_if_available<PbufHelloMessage const*, google::protobuf::Message const*>(google::protobuf::Message const*)
PUBLIC ad962 0 google::protobuf::internal::ExtensionIdentifier<FunMessage, google::protobuf::internal::MessageTypeTraits<PbufEchoMessage>, (unsigned char)11, false>::ExtensionIdentifier(int, PbufEchoMessage const&)
PUBLIC ad988 0 google::protobuf::internal::ExtensionIdentifier<FunMessage, google::protobuf::internal::MessageTypeTraits<PbufAnotherMessage>, (unsigned char)11, false>::ExtensionIdentifier(int, PbufAnotherMessage const&)
PUBLIC ad9ae 0 google::protobuf::internal::ExtensionIdentifier<FunMulticastMessage, google::protobuf::internal::MessageTypeTraits<PbufHelloMessage>, (unsigned char)11, false>::ExtensionIdentifier(int, PbufHelloMessage const&)
PUBLIC ad9d4 0 std::vector<google::protobuf::UnknownField, std::allocator<google::protobuf::UnknownField> >::end() const
PUBLIC ada06 0 std::vector<google::protobuf::UnknownField, std::allocator<google::protobuf::UnknownField> >::begin() const
PUBLIC ada36 0 bool __gnu_cxx::operator==<google::protobuf::UnknownField const*, std::vector<google::protobuf::UnknownField, std::allocator<google::protobuf::UnknownField> > >(__gnu_cxx::__normal_iterator<google::protobuf::UnknownField const*, std::vector<google::protobuf::UnknownField, std::allocator<google::protobuf::UnknownField> > > const&, __gnu_cxx::__normal_iterator<google::protobuf::UnknownField const*, std::vector<google::protobuf::UnknownField, std::allocator<google::protobuf::UnknownField> > > const&)
PUBLIC ada72 0 __gnu_cxx::__normal_iterator<google::protobuf::UnknownField const*, std::vector<google::protobuf::UnknownField, std::allocator<google::protobuf::UnknownField> > >::__normal_iterator(google::protobuf::UnknownField const* const&)
PUBLIC ada8e 0 __gnu_cxx::__normal_iterator<google::protobuf::UnknownField const*, std::vector<google::protobuf::UnknownField, std::allocator<google::protobuf::UnknownField> > >::base() const
PUBLIC ada9c 0 protobuf_AssignDesc_pong_5frpc_5fmessages_2eproto()
PUBLIC adcb7 0 protobuf_ShutdownFile_pong_5frpc_5fmessages_2eproto()
PUBLIC add18 0 protobuf_AddDesc_pong_5frpc_5fmessages_2eproto()
PUBLIC ade00 0 EchoRpcMessage::EchoRpcMessage()
PUBLIC ade80 0 EchoRpcMessage::InitAsDefaultInstance()
PUBLIC ade8a 0 EchoRpcMessage::EchoRpcMessage(EchoRpcMessage const&)
PUBLIC adf20 0 EchoRpcMessage::SharedCtor()
PUBLIC adf62 0 EchoRpcMessage::~EchoRpcMessage()
PUBLIC adfc0 0 EchoRpcMessage::~EchoRpcMessage()
PUBLIC adfe6 0 EchoRpcMessage::SharedDtor()
PUBLIC ae02c 0 EchoRpcMessage::SetCachedSize(int) const
PUBLIC ae044 0 EchoRpcMessage::descriptor()
PUBLIC ae056 0 EchoRpcMessage::default_instance()
PUBLIC ae07a 0 EchoRpcMessage::New() const
PUBLIC ae0c2 0 EchoRpcMessage::Clear()
PUBLIC ae140 0 EchoRpcMessage::MergePartialFromCodedStream(google::protobuf::io::CodedInputStream*)
PUBLIC ae2f2 0 EchoRpcMessage::SerializeWithCachedSizes(google::protobuf::io::CodedOutputStream*) const
PUBLIC ae3a6 0 EchoRpcMessage::SerializeWithCachedSizesToArray(unsigned char*) const
PUBLIC ae52e 0 EchoRpcMessage::ByteSize() const
PUBLIC ae5ba 0 EchoRpcMessage::MergeFrom(google::protobuf::Message const&)
PUBLIC ae6b6 0 EchoRpcMessage::MergeFrom(EchoRpcMessage const&)
PUBLIC ae7d4 0 EchoRpcMessage::CopyFrom(google::protobuf::Message const&)
PUBLIC ae828 0 EchoRpcMessage::CopyFrom(EchoRpcMessage const&)
PUBLIC ae870 0 EchoRpcMessage::IsInitialized() const
PUBLIC ae880 0 EchoRpcMessage::Swap(EchoRpcMessage*)
PUBLIC ae908 0 EchoRpcMessage::GetMetadata() const
PUBLIC ae998 0 EchoRpcMessage::unknown_fields() const
PUBLIC ae9aa 0 EchoRpcMessage::mutable_unknown_fields()
PUBLIC ae9bc 0 EchoRpcMessage::GetCachedSize() const
PUBLIC ae9ce 0 EchoRpcMessage::has_message() const
PUBLIC ae9e8 0 EchoRpcMessage::set_has_message()
PUBLIC aea06 0 EchoRpcMessage::message() const
PUBLIC aea18 0 EchoRpcMessage::set_message(std::string const&)
PUBLIC aeaa0 0 EchoRpcMessage::mutable_message()
PUBLIC aeb16 0 StaticDescriptorInitializer_pong_5frpc_5fmessages_2eproto::StaticDescriptorInitializer_pong_5frpc_5fmessages_2eproto()
PUBLIC aeb29 0 EchoRpcMessage const* google::protobuf::internal::dynamic_cast_if_available<EchoRpcMessage const*, google::protobuf::Message const*>(google::protobuf::Message const*)
PUBLIC aeb62 0 google::protobuf::internal::ExtensionIdentifier<FunRpcMessage, google::protobuf::internal::MessageTypeTraits<EchoRpcMessage>, (unsigned char)11, false>::ExtensionIdentifier(int, EchoRpcMessage const&)
PUBLIC aeb88 0 pong::ArrayRef<bool>::GetAt(unsigned long) const
PUBLIC aebc6 0 pong::ArrayRef<long>::GetAt(unsigned long) const
PUBLIC aec04 0 pong::ArrayRef<double>::GetAt(unsigned long) const
PUBLIC aec4c 0 pong::ArrayRef<std::string>::GetAt(unsigned long) const
PUBLIC aeca2 0 pong::ArrayRef<boost::uuids::uuid>::GetAt(unsigned long) const
PUBLIC aece4 0 pong::ArrayRef<boost::shared_ptr<pong::Character> >::GetAt(unsigned long) const
PUBLIC aeda2 0 pong::ArrayRef<boost::shared_ptr<pong::User> >::GetAt(unsigned long) const
PUBLIC aee60 0 pong::ArrayRef<bool>::SetAt(unsigned long, bool const&)
PUBLIC aeea4 0 pong::ArrayRef<long>::SetAt(unsigned long, long const&)
PUBLIC aeee8 0 pong::ArrayRef<double>::SetAt(unsigned long, double const&)
PUBLIC aef2c 0 pong::ArrayRef<std::string>::SetAt(unsigned long, std::string const&)
PUBLIC aef70 0 pong::ArrayRef<boost::uuids::uuid>::SetAt(unsigned long, boost::uuids::uuid const&)
PUBLIC aefb4 0 pong::ArrayRef<boost::shared_ptr<pong::Character> >::SetAt(unsigned long, boost::shared_ptr<pong::Character> const&)
PUBLIC af04e 0 pong::ArrayRef<boost::shared_ptr<pong::User> >::SetAt(unsigned long, boost::shared_ptr<pong::User> const&)
PUBLIC af0e8 0 pong::ArrayRef<bool>::InsertAt(unsigned long, bool const&)
PUBLIC af12c 0 pong::ArrayRef<long>::InsertAt(unsigned long, long const&)
PUBLIC af170 0 pong::ArrayRef<double>::InsertAt(unsigned long, double const&)
PUBLIC af1b4 0 pong::ArrayRef<std::string>::InsertAt(unsigned long, std::string const&)
PUBLIC af1f8 0 pong::ArrayRef<boost::uuids::uuid>::InsertAt(unsigned long, boost::uuids::uuid const&)
PUBLIC af23c 0 pong::ArrayRef<boost::shared_ptr<pong::Character> >::InsertAt(unsigned long, boost::shared_ptr<pong::Character> const&)
PUBLIC af2d6 0 pong::ArrayRef<boost::shared_ptr<pong::User> >::InsertAt(unsigned long, boost::shared_ptr<pong::User> const&)
PUBLIC af370 0 pong::ArrayRef<bool>::Front() const
PUBLIC af390 0 pong::ArrayRef<long>::Front() const
PUBLIC af3b0 0 pong::ArrayRef<double>::Front() const
PUBLIC af3e2 0 pong::ArrayRef<std::string>::Front() const
PUBLIC af410 0 pong::ArrayRef<boost::uuids::uuid>::Front() const
PUBLIC af430 0 pong::ArrayRef<boost::shared_ptr<pong::Character> >::Front() const
PUBLIC af45e 0 pong::ArrayRef<boost::shared_ptr<pong::User> >::Front() const
PUBLIC af48c 0 pong::ArrayRef<bool>::Back() const
PUBLIC af4ba 0 pong::ArrayRef<long>::Back() const
PUBLIC af4e8 0 pong::ArrayRef<double>::Back() const
PUBLIC af528 0 pong::ArrayRef<std::string>::Back() const
PUBLIC af562 0 pong::ArrayRef<boost::uuids::uuid>::Back() const
PUBLIC af590 0 pong::ArrayRef<boost::shared_ptr<pong::Character> >::Back() const
PUBLIC af5ca 0 pong::ArrayRef<boost::shared_ptr<pong::User> >::Back() const
PUBLIC af604 0 pong::ArrayRef<bool>::PushFront(bool const&)
PUBLIC af62c 0 pong::ArrayRef<long>::PushFront(long const&)
PUBLIC af654 0 pong::ArrayRef<double>::PushFront(double const&)
PUBLIC af67c 0 pong::ArrayRef<std::string>::PushFront(std::string const&)
PUBLIC af6a4 0 pong::ArrayRef<boost::uuids::uuid>::PushFront(boost::uuids::uuid const&)
PUBLIC af6cc 0 pong::ArrayRef<boost::shared_ptr<pong::Character> >::PushFront(boost::shared_ptr<pong::Character> const&)
PUBLIC af6f4 0 pong::ArrayRef<boost::shared_ptr<pong::User> >::PushFront(boost::shared_ptr<pong::User> const&)
PUBLIC af71c 0 pong::ArrayRef<bool>::PushBack(bool const&)
PUBLIC af750 0 pong::ArrayRef<long>::PushBack(long const&)
PUBLIC af784 0 pong::ArrayRef<double>::PushBack(double const&)
PUBLIC af7b8 0 pong::ArrayRef<std::string>::PushBack(std::string const&)
PUBLIC af7ec 0 pong::ArrayRef<boost::uuids::uuid>::PushBack(boost::uuids::uuid const&)
PUBLIC af820 0 pong::ArrayRef<boost::shared_ptr<pong::Character> >::PushBack(boost::shared_ptr<pong::Character> const&)
PUBLIC af854 0 pong::ArrayRef<boost::shared_ptr<pong::User> >::PushBack(boost::shared_ptr<pong::User> const&)
PUBLIC af930 0 pong::Character::MatchByObjectId(boost::uuids::uuid const&)
PUBLIC afab8 0 pong::Character::MatchByName(std::string const&, pong::MatchCondition)
PUBLIC afc5e 0 pong::Character::MatchByExp(long const&, pong::MatchCondition)
PUBLIC afdcc 0 pong::Character::MatchByLevel(long const&, pong::MatchCondition)
PUBLIC aff3a 0 pong::Character::MatchByHp(long const&, pong::MatchCondition)
PUBLIC b00a8 0 pong::Character::MatchByMp(long const&, pong::MatchCondition)
PUBLIC b0216 0 pong::Character::RegisterNameTrigger(boost::function<bool (boost::uuids::uuid const&)> const&, boost::function<void (boost::uuids::uuid const&)> const&)
PUBLIC b0306 0 pong::Character::RegisterExpTrigger(boost::function<bool (boost::uuids::uuid const&)> const&, boost::function<void (boost::uuids::uuid const&)> const&)
PUBLIC b03f6 0 pong::Character::RegisterLevelTrigger(boost::function<bool (boost::uuids::uuid const&)> const&, boost::function<void (boost::uuids::uuid const&)> const&)
PUBLIC b04e6 0 pong::Character::RegisterHpTrigger(boost::function<bool (boost::uuids::uuid const&)> const&, boost::function<void (boost::uuids::uuid const&)> const&)
PUBLIC b05d6 0 pong::Character::RegisterMpTrigger(boost::function<bool (boost::uuids::uuid const&)> const&, boost::function<void (boost::uuids::uuid const&)> const&)
PUBLIC b06c6 0 pong::Character::SelectByName(fun::Object::ConditionType const&, std::string const&, boost::function<void (boost::shared_ptr<std::set<boost::uuids::uuid, std::less<boost::uuids::uuid>, std::allocator<boost::uuids::uuid> > > const&)> const&)
PUBLIC b087a 0 pong::Character::SelectByExp(fun::Object::ConditionType const&, long const&, boost::function<void (boost::shared_ptr<std::set<boost::uuids::uuid, std::less<boost::uuids::uuid>, std::allocator<boost::uuids::uuid> > > const&)> const&)
PUBLIC b0a2e 0 pong::Character::SelectByLevel(fun::Object::ConditionType const&, long const&, boost::function<void (boost::shared_ptr<std::set<boost::uuids::uuid, std::less<boost::uuids::uuid>, std::allocator<boost::uuids::uuid> > > const&)> const&)
PUBLIC b0be2 0 pong::Character::SelectByHp(fun::Object::ConditionType const&, long const&, boost::function<void (boost::shared_ptr<std::set<boost::uuids::uuid, std::less<boost::uuids::uuid>, std::allocator<boost::uuids::uuid> > > const&)> const&)
PUBLIC b0d96 0 pong::Character::SelectByMp(fun::Object::ConditionType const&, long const&, boost::function<void (boost::shared_ptr<std::set<boost::uuids::uuid, std::less<boost::uuids::uuid>, std::allocator<boost::uuids::uuid> > > const&)> const&)
PUBLIC b0f4a 0 pong::Character::CreateOpaqueDataFromJson(fun::Json const&)
PUBLIC b18da 0 pong::Character::Create(std::string const&)
PUBLIC b1b82 0 pong::Character::Fetch(boost::uuids::uuid const&, fun::LockType)
PUBLIC b1cec 0 pong::Character::Fetch(std::vector<boost::uuids::uuid, std::allocator<boost::uuids::uuid> > const&, std::vector<std::pair<boost::uuids::uuid, boost::shared_ptr<pong::Character> >, std::allocator<std::pair<boost::uuids::uuid, boost::shared_ptr<pong::Character> > > >*, fun::LockType)
PUBLIC b207e 0 pong::Character::FetchByName(std::string const&, fun::LockType)
PUBLIC b22a0 0 pong::Character::FetchByName(std::vector<std::string, std::allocator<std::string> > const&, std::vector<std::pair<std::string, boost::shared_ptr<pong::Character> >, std::allocator<std::pair<std::string, boost::shared_ptr<pong::Character> > > >*, fun::LockType)
PUBLIC b2876 0 pong::Character::FetchRandomly(unsigned long, std::vector<boost::shared_ptr<pong::Character>, std::allocator<boost::shared_ptr<pong::Character> > >*, fun::LockType)
PUBLIC b2a3e 0 pong::Character::IsNull() const
PUBLIC b2a58 0 pong::Character::IsFresh() const
PUBLIC b2a72 0 pong::Character::Refresh()
PUBLIC b2a8c 0 pong::Character::ToJson(fun::Json*) const
PUBLIC b2ab8 0 pong::Character::Id() const
PUBLIC b2b1a 0 pong::Character::Delete()
PUBLIC b2b74 0 pong::Character::PopulateFrom(boost::shared_ptr<pong::Character::OpaqueData> const&)
PUBLIC b2c06 0 pong::Character::GetName() const
PUBLIC b2cf6 0 pong::Character::SetName(std::string const&)
PUBLIC b2dd4 0 pong::Character::GetExp() const
PUBLIC b2eb0 0 pong::Character::SetExp(long const&)
PUBLIC b2f8e 0 pong::Character::GetLevel() const
PUBLIC b306a 0 pong::Character::SetLevel(long const&)
PUBLIC b3148 0 pong::Character::GetHp() const
PUBLIC b3224 0 pong::Character::SetHp(long const&)
PUBLIC b3302 0 pong::Character::GetMp() const
PUBLIC b33de 0 pong::Character::SetMp(long const&)
PUBLIC b34bc 0 pong::Character::Character(boost::shared_ptr<fun::Object> const&)
PUBLIC b34f4 0 pong::User::MatchByObjectId(boost::uuids::uuid const&)
PUBLIC b367c 0 pong::User::MatchById(std::string const&, pong::MatchCondition)
PUBLIC b3822 0 pong::User::MatchByMyCharacter(boost::function<bool (boost::shared_ptr<pong::Character> const&)> const&)
PUBLIC b39ae 0 pong::User::MatchBytmp(long const&, pong::MatchCondition)
PUBLIC b3b1c 0 pong::User::RegisterIdTrigger(boost::function<bool (boost::uuids::uuid const&)> const&, boost::function<void (boost::uuids::uuid const&)> const&)
PUBLIC b3c0c 0 pong::User::RegisterMyCharacterTrigger(boost::function<bool (boost::uuids::uuid const&)> const&, boost::function<void (boost::uuids::uuid const&)> const&)
PUBLIC b3cfc 0 pong::User::RegistertmpTrigger(boost::function<bool (boost::uuids::uuid const&)> const&, boost::function<void (boost::uuids::uuid const&)> const&)
PUBLIC b3dec 0 pong::User::SelectById(fun::Object::ConditionType const&, std::string const&, boost::function<void (boost::shared_ptr<std::set<boost::uuids::uuid, std::less<boost::uuids::uuid>, std::allocator<boost::uuids::uuid> > > const&)> const&)
PUBLIC b3fa0 0 pong::User::SelectByMyCharacter(fun::Object::ConditionType const&, boost::shared_ptr<pong::Character> const&, boost::function<void (boost::shared_ptr<std::set<boost::uuids::uuid, std::less<boost::uuids::uuid>, std::allocator<boost::uuids::uuid> > > const&)> const&)
PUBLIC b4168 0 pong::User::SelectBytmp(fun::Object::ConditionType const&, long const&, boost::function<void (boost::shared_ptr<std::set<boost::uuids::uuid, std::less<boost::uuids::uuid>, std::allocator<boost::uuids::uuid> > > const&)> const&)
PUBLIC b431c 0 pong::User::CreateOpaqueDataFromJson(fun::Json const&)
PUBLIC b48ac 0 pong::User::Create(std::string const&)
PUBLIC b4b54 0 pong::User::Fetch(boost::uuids::uuid const&, fun::LockType)
PUBLIC b4cbe 0 pong::User::Fetch(std::vector<boost::uuids::uuid, std::allocator<boost::uuids::uuid> > const&, std::vector<std::pair<boost::uuids::uuid, boost::shared_ptr<pong::User> >, std::allocator<std::pair<boost::uuids::uuid, boost::shared_ptr<pong::User> > > >*, fun::LockType)
PUBLIC b5050 0 pong::User::FetchById(std::string const&, fun::LockType)
PUBLIC b5272 0 pong::User::FetchById(std::vector<std::string, std::allocator<std::string> > const&, std::vector<std::pair<std::string, boost::shared_ptr<pong::User> >, std::allocator<std::pair<std::string, boost::shared_ptr<pong::User> > > >*, fun::LockType)
PUBLIC b5848 0 pong::User::FetchRandomly(unsigned long, std::vector<boost::shared_ptr<pong::User>, std::allocator<boost::shared_ptr<pong::User> > >*, fun::LockType)
PUBLIC b5a10 0 pong::User::IsNull() const
PUBLIC b5a2a 0 pong::User::IsFresh() const
PUBLIC b5a44 0 pong::User::Refresh()
PUBLIC b5a5e 0 pong::User::ToJson(fun::Json*) const
PUBLIC b5a8a 0 pong::User::Id() const
PUBLIC b5aec 0 pong::User::Delete()
PUBLIC b5b46 0 pong::User::PopulateFrom(boost::shared_ptr<pong::User::OpaqueData> const&)
PUBLIC b5cce 0 pong::User::GetId() const
PUBLIC b5dbe 0 pong::User::SetId(std::string const&)
PUBLIC b5e9c 0 pong::User::GetMyCharacter() const
PUBLIC b611a 0 pong::User::SetMyCharacter(boost::shared_ptr<pong::Character> const&)
PUBLIC b62b8 0 pong::User::DeleteMyCharacter(bool)
PUBLIC b639e 0 pong::User::Gettmp() const
PUBLIC b647a 0 pong::User::Settmp(long const&)
PUBLIC b6558 0 pong::User::User(boost::shared_ptr<fun::Object> const&)
PUBLIC b658f 0 pong::RegisterCharacterModel()
PUBLIC b6ccf 0 pong::RegisterUserModel()
PUBLIC b7291 0 pong::ObjectModelInit()
PUBLIC b72a6 0 pong::DumpJson(pong::Character const&, fun::Json*)
PUBLIC b75d6 0 pong::DumpJson(boost::shared_ptr<pong::Character const> const&, fun::Json*)
PUBLIC b7613 0 pong::DumpJson(pong::User const&, fun::Json*)
PUBLIC b78a6 0 pong::DumpJson(boost::shared_ptr<pong::User const> const&, fun::Json*)
PUBLIC b7cb6 0 std::exception::exception()
PUBLIC b7cd2 0 std::bad_exception::bad_exception()
PUBLIC b7cfe 0 std::bad_alloc::bad_alloc()
PUBLIC b7d2a 0 operator new(unsigned long, void*)
PUBLIC b7d3c 0 operator delete(void*, void*)
PUBLIC b7d4a 0 std::type_info::name() const
PUBLIC b7d7a 0 std::exception::exception(std::exception const&)
PUBLIC b7d9a 0 std::char_traits<char>::compare(char const*, char const*, unsigned long)
PUBLIC b7dc8 0 boost::error_info<boost::throw_function_, char const*>::error_info(char const*)
PUBLIC b7de2 0 boost::error_info<boost::throw_file_, char const*>::error_info(char const*)
PUBLIC b7dfc 0 boost::error_info<boost::throw_line_, int>::error_info(int)
PUBLIC b7e12 0 boost::exception::exception()
PUBLIC b7e66 0 boost::exception::~exception()
PUBLIC b7eac 0 boost::exception::~exception()
PUBLIC b7ed2 0 boost::exception_detail::clone_base::~clone_base()
PUBLIC b7f08 0 boost::exception_detail::clone_base::~clone_base()
PUBLIC b7f2e 0 boost::exception_detail::copy_boost_exception(boost::exception*, boost::exception const*)
PUBLIC b8028 0 boost::throw_exception_assert_compatibility(std::exception const&)
PUBLIC b8032 0 boost::detail::atomic_exchange_and_add(int*, int)
PUBLIC b8054 0 boost::detail::atomic_increment(int*)
PUBLIC b806a 0 boost::detail::sp_counted_base::sp_counted_base()
PUBLIC b809c 0 boost::detail::sp_counted_base::~sp_counted_base()
PUBLIC b80d2 0 boost::detail::sp_counted_base::~sp_counted_base()
PUBLIC b80f8 0 boost::detail::sp_counted_base::destroy()
PUBLIC b8124 0 boost::detail::sp_counted_base::add_ref_copy()
PUBLIC b8142 0 boost::detail::sp_counted_base::release()
PUBLIC b8192 0 boost::detail::sp_counted_base::weak_release()
PUBLIC b81d6 0 boost::detail::shared_count::shared_count()
PUBLIC b81ec 0 boost::detail::shared_count::~shared_count()
PUBLIC b8216 0 boost::detail::shared_count::shared_count(boost::detail::shared_count const&)
PUBLIC b8252 0 boost::detail::shared_count::swap(boost::detail::shared_count&)
PUBLIC b8284 0 boost::detail::weak_count::weak_count()
PUBLIC b829a 0 boost::detail::weak_count::~weak_count()
PUBLIC b82c3 0 std::operator&(std::_Ios_Fmtflags, std::_Ios_Fmtflags)
PUBLIC b82d7 0 std::operator|(std::_Ios_Fmtflags, std::_Ios_Fmtflags)
PUBLIC b82eb 0 std::operator~(std::_Ios_Fmtflags)
PUBLIC b82f9 0 std::operator|=(std::_Ios_Fmtflags&, std::_Ios_Fmtflags)
PUBLIC b8326 0 std::operator&=(std::_Ios_Fmtflags&, std::_Ios_Fmtflags)
PUBLIC b8354 0 std::ios_base::flags() const
PUBLIC b8366 0 std::ios_base::flags(std::_Ios_Fmtflags)
PUBLIC b838a 0 std::ios_base::setf(std::_Ios_Fmtflags, std::_Ios_Fmtflags)
PUBLIC b83e8 0 std::ios_base::width(long)
PUBLIC b8412 0 std::hex(std::ios_base&)
PUBLIC b843a 0 boost::detail::sp_enable_shared_from_this(...)
PUBLIC b8440 0 boost::function_base::function_base()
PUBLIC b8456 0 boost::function_base::empty() const
PUBLIC b846e 0 boost::function_base::has_trivial_copy_and_destroy() const
PUBLIC b8488 0 boost::bad_function_call::bad_function_call()
PUBLIC b8529 0 boost::detail::function::has_empty_target(...)
PUBLIC b8534 0 boost::system::error_category::~error_category()
PUBLIC b856a 0 boost::system::error_category::~error_category()
PUBLIC b8590 0 boost::system::error_category::operator==(boost::system::error_category const&) const
PUBLIC b85aa 0 boost::system::error_condition::error_condition(int, boost::system::error_category const&)
PUBLIC b85d0 0 boost::system::operator==(boost::system::error_condition const&, boost::system::error_condition const&)
PUBLIC b8610 0 boost::system::error_code::value() const
PUBLIC b8620 0 boost::system::error_code::category() const
PUBLIC b8632 0 boost::system::error_code::message() const
PUBLIC b8682 0 boost::system::error_category::default_error_condition(int) const
PUBLIC b86be 0 boost::system::error_category::equivalent(int, boost::system::error_condition const&) const
PUBLIC b870e 0 boost::system::error_category::equivalent(boost::system::error_code const&, int) const
PUBLIC b8762 0 boost::system::system_error::~system_error()
PUBLIC b87b4 0 boost::system::system_error::~system_error()
PUBLIC b87da 0 boost::system::system_error::what() const
PUBLIC b88ee 0 boost::io::ios_flags_saver::ios_flags_saver(std::ios_base&)
PUBLIC b891e 0 boost::io::ios_flags_saver::~ios_flags_saver()
PUBLIC b8938 0 boost::io::ios_flags_saver::restore()
PUBLIC b895e 0 boost::shared_ptr<boost::exception_detail::clone_base const>::~shared_ptr()
PUBLIC b897c 0 boost::exception_ptr::exception_ptr(boost::shared_ptr<boost::exception_detail::clone_base const> const&)
PUBLIC b89a2 0 boost::exception_detail::bad_alloc_::~bad_alloc_()
PUBLIC b8a06 0 non-virtual thunk to boost::exception_detail::bad_alloc_::~bad_alloc_()
PUBLIC b8a10 0 boost::exception_detail::bad_alloc_::~bad_alloc_()
PUBLIC b8a36 0 non-virtual thunk to boost::exception_detail::bad_alloc_::~bad_alloc_()
PUBLIC b8a3c 0 boost::exception_detail::bad_exception_::~bad_exception_()
PUBLIC b8aa0 0 non-virtual thunk to boost::exception_detail::bad_exception_::~bad_exception_()
PUBLIC b8aaa 0 boost::exception_detail::bad_exception_::~bad_exception_()
PUBLIC b8ad0 0 non-virtual thunk to boost::exception_detail::bad_exception_::~bad_exception_()
PUBLIC b8ad6 0 boost::exception::exception(boost::exception const&)
PUBLIC b8b44 0 boost::exception_ptr::~exception_ptr()
PUBLIC b8b5e 0 boost::exception_ptr::exception_ptr(boost::exception_ptr const&)
PUBLIC b8b83 0 boost::uuids::uuid::static_size()
PUBLIC b8b8e 0 boost::uuids::uuid::begin() const
PUBLIC b8b9c 0 boost::uuids::uuid::end() const
PUBLIC b8bbe 0 boost::uuids::uuid::size() const
PUBLIC b8bd1 0 boost::uuids::operator==(boost::uuids::uuid const&, boost::uuids::uuid const&)
PUBLIC b8c25 0 boost::uuids::operator<(boost::uuids::uuid const&, boost::uuids::uuid const&)
PUBLIC b8c8f 0 boost::uuids::operator>(boost::uuids::uuid const&, boost::uuids::uuid const&)
PUBLIC b8cb4 0 boost::asio::detail::noncopyable::noncopyable()
PUBLIC b8cbe 0 boost::asio::detail::noncopyable::~noncopyable()
PUBLIC b8cc8 0 boost::asio::error::get_system_category()
PUBLIC b8cd4 0 boost::asio::error::detail::netdb_category::name() const
PUBLIC b8ce6 0 boost::asio::error::detail::netdb_category::message(int) const
PUBLIC b8ea3 0 boost::asio::error::get_netdb_category()
PUBLIC b8f06 0 boost::asio::error::detail::addrinfo_category::name() const
PUBLIC b8f18 0 boost::asio::error::detail::addrinfo_category::message(int) const
PUBLIC b9027 0 boost::asio::error::get_addrinfo_category()
PUBLIC b908a 0 boost::asio::error::detail::misc_category::name() const
PUBLIC b909c 0 boost::asio::error::detail::misc_category::message(int) const
PUBLIC b9259 0 boost::asio::error::get_misc_category()
PUBLIC b92bc 0 boost::asio::io_service::id::id()
PUBLIC b92d6 0 boost::shared_ptr<pong::Character>::~shared_ptr()
PUBLIC b92f4 0 fun::AttributeValue::~AttributeValue()
PUBLIC b930e 0 boost::shared_ptr<pong::User>::~shared_ptr()
PUBLIC b932c 0 pong::Character::OpaqueData::OpaqueData()
PUBLIC b9366 0 boost::shared_ptr<pong::Character::OpaqueData>::~shared_ptr()
PUBLIC b9384 0 pong::User::OpaqueData::OpaqueData()
PUBLIC b93aa 0 boost::function<boost::uuids::uuid (boost::shared_ptr<pong::Character> const&)>::~function()
PUBLIC b93c4 0 boost::_bi::value<boost::function<boost::uuids::uuid (boost::shared_ptr<pong::Character> const&)> >::~value()
PUBLIC b93de 0 boost::_bi::storage3<boost::arg<1>, boost::_bi::value<boost::uuids::uuid>, boost::_bi::value<boost::function<boost::uuids::uuid (boost::shared_ptr<pong::Character> const&)> > >::~storage3()
PUBLIC b93fc 0 boost::_bi::storage4<boost::arg<1>, boost::_bi::value<boost::uuids::uuid>, boost::_bi::value<boost::function<boost::uuids::uuid (boost::shared_ptr<pong::Character> const&)> >, boost::_bi::value<pong::MatchCondition> >::~storage4()
PUBLIC b9416 0 boost::_bi::list4<boost::arg<1>, boost::_bi::value<boost::uuids::uuid>, boost::_bi::value<boost::function<boost::uuids::uuid (boost::shared_ptr<pong::Character> const&)> >, boost::_bi::value<pong::MatchCondition> >::~list4()
PUBLIC b9430 0 boost::_bi::bind_t<bool, bool (*)(boost::shared_ptr<pong::Character> const&, boost::uuids::uuid const&, boost::function<boost::uuids::uuid (boost::shared_ptr<pong::Character> const&)> const&, pong::MatchCondition), boost::_bi::list4<boost::arg<1>, boost::_bi::value<boost::uuids::uuid>, boost::_bi::value<boost::function<boost::uuids::uuid (boost::shared_ptr<pong::Character> const&)> >, boost::_bi::value<pong::MatchCondition> > >::~bind_t()
PUBLIC b944e 0 boost::function<bool (boost::shared_ptr<pong::Character> const&)>::~function()
PUBLIC b9468 0 boost::function<std::string (boost::shared_ptr<pong::Character> const&)>::~function()
PUBLIC b9482 0 boost::_bi::value<std::string>::~value()
PUBLIC b949c 0 boost::_bi::storage2<boost::arg<1>, boost::_bi::value<std::string> >::~storage2()
PUBLIC b94b6 0 boost::_bi::value<boost::function<std::string (boost::shared_ptr<pong::Character> const&)> >::~value()
PUBLIC b94d0 0 boost::_bi::storage3<boost::arg<1>, boost::_bi::value<std::string>, boost::_bi::value<boost::function<std::string (boost::shared_ptr<pong::Character> const&)> > >::~storage3()
PUBLIC b94fa 0 boost::_bi::storage4<boost::arg<1>, boost::_bi::value<std::string>, boost::_bi::value<boost::function<std::string (boost::shared_ptr<pong::Character> const&)> >, boost::_bi::value<pong::MatchCondition> >::~storage4()
PUBLIC b9514 0 boost::_bi::list4<boost::arg<1>, boost::_bi::value<std::string>, boost::_bi::value<boost::function<std::string (boost::shared_ptr<pong::Character> const&)> >, boost::_bi::value<pong::MatchCondition> >::~list4()
PUBLIC b952e 0 boost::_bi::bind_t<bool, bool (*)(boost::shared_ptr<pong::Character> const&, std::string const&, boost::function<std::string (boost::shared_ptr<pong::Character> const&)> const&, pong::MatchCondition), boost::_bi::list4<boost::arg<1>, boost::_bi::value<std::string>, boost::_bi::value<boost::function<std::string (boost::shared_ptr<pong::Character> const&)> >, boost::_bi::value<pong::MatchCondition> > >::~bind_t()
PUBLIC b954c 0 boost::function<long (boost::shared_ptr<pong::Character> const&)>::~function()
PUBLIC b9566 0 boost::_bi::value<boost::function<long (boost::shared_ptr<pong::Character> const&)> >::~value()
PUBLIC b9580 0 boost::_bi::storage3<boost::arg<1>, boost::_bi::value<long>, boost::_bi::value<boost::function<long (boost::shared_ptr<pong::Character> const&)> > >::~storage3()
PUBLIC b959e 0 boost::_bi::storage4<boost::arg<1>, boost::_bi::value<long>, boost::_bi::value<boost::function<long (boost::shared_ptr<pong::Character> const&)> >, boost::_bi::value<pong::MatchCondition> >::~storage4()
PUBLIC b95b8 0 boost::_bi::list4<boost::arg<1>, boost::_bi::value<long>, boost::_bi::value<boost::function<long (boost::shared_ptr<pong::Character> const&)> >, boost::_bi::value<pong::MatchCondition> >::~list4()
PUBLIC b95d2 0 boost::_bi::bind_t<bool, bool (*)(boost::shared_ptr<pong::Character> const&, long const&, boost::function<long (boost::shared_ptr<pong::Character> const&)> const&, pong::MatchCondition), boost::_bi::list4<boost::arg<1>, boost::_bi::value<long>, boost::_bi::value<boost::function<long (boost::shared_ptr<pong::Character> const&)> >, boost::_bi::value<pong::MatchCondition> > >::~bind_t()
PUBLIC b95f0 0 std::map<std::string, boost::shared_ptr<fun::AttributeValue>, std::less<std::string>, std::allocator<std::pair<std::string const, boost::shared_ptr<fun::AttributeValue> > > >::~map()
PUBLIC b960a 0 boost::shared_ptr<fun::Object>::~shared_ptr()
PUBLIC b9628 0 boost::uuids::uuid& std::forward<boost::uuids::uuid&>(std::remove_reference<boost::uuids::uuid&>::type&)
PUBLIC b9636 0 boost::shared_ptr<pong::Character>& std::forward<boost::shared_ptr<pong::Character>&>(std::remove_reference<boost::shared_ptr<pong::Character>&>::type&)
PUBLIC b9644 0 std::pair<boost::uuids::uuid, boost::shared_ptr<pong::Character> >::pair<boost::uuids::uuid&, boost::shared_ptr<pong::Character>&, void>(boost::uuids::uuid&, boost::shared_ptr<pong::Character>&)
PUBLIC b9698 0 std::pair<boost::uuids::uuid, boost::shared_ptr<pong::Character> >::~pair()
PUBLIC b96b6 0 std::pair<boost::uuids::uuid, boost::shared_ptr<pong::Character> >::pair(std::pair<boost::uuids::uuid, boost::shared_ptr<pong::Character> >&&)
PUBLIC b96f9 0 std::pair<std::__decay_and_strip<boost::uuids::uuid&>::__type, std::__decay_and_strip<boost::shared_ptr<pong::Character>&>::__type> std::make_pair<boost::uuids::uuid&, boost::shared_ptr<pong::Character>&>(boost::uuids::uuid&, boost::shared_ptr<pong::Character>&)
PUBLIC b974a 0 boost::shared_ptr<fun::AttributeValue>::~shared_ptr()
PUBLIC b9768 0 std::string const& std::forward<std::string const&>(std::remove_reference<std::string const&>::type&)
PUBLIC b9776 0 std::pair<std::string, boost::shared_ptr<pong::Character> >::pair<boost::shared_ptr<pong::Character>&, void>(std::string const&, boost::shared_ptr<pong::Character>&)
PUBLIC b97be 0 std::pair<std::string, boost::shared_ptr<pong::Character> >::~pair()
PUBLIC b97e8 0 std::pair<std::string, boost::shared_ptr<pong::Character> >::pair(std::pair<std::string, boost::shared_ptr<pong::Character> >&&)
PUBLIC b9828 0 std::pair<std::__decay_and_strip<std::string const&>::__type, std::__decay_and_strip<boost::shared_ptr<pong::Character>&>::__type> std::make_pair<std::string const&, boost::shared_ptr<pong::Character>&>(std::string const&, boost::shared_ptr<pong::Character>&)
PUBLIC b9878 0 boost::function<boost::uuids::uuid (boost::shared_ptr<pong::User> const&)>::~function()
PUBLIC b9892 0 boost::_bi::value<boost::function<boost::uuids::uuid (boost::shared_ptr<pong::User> const&)> >::~value()
PUBLIC b98ac 0 boost::_bi::storage3<boost::arg<1>, boost::_bi::value<boost::uuids::uuid>, boost::_bi::value<boost::function<boost::uuids::uuid (boost::shared_ptr<pong::User> const&)> > >::~storage3()
PUBLIC b98ca 0 boost::_bi::storage4<boost::arg<1>, boost::_bi::value<boost::uuids::uuid>, boost::_bi::value<boost::function<boost::uuids::uuid (boost::shared_ptr<pong::User> const&)> >, boost::_bi::value<pong::MatchCondition> >::~storage4()
PUBLIC b98e4 0 boost::_bi::list4<boost::arg<1>, boost::_bi::value<boost::uuids::uuid>, boost::_bi::value<boost::function<boost::uuids::uuid (boost::shared_ptr<pong::User> const&)> >, boost::_bi::value<pong::MatchCondition> >::~list4()
PUBLIC b98fe 0 boost::_bi::bind_t<bool, bool (*)(boost::shared_ptr<pong::User> const&, boost::uuids::uuid const&, boost::function<boost::uuids::uuid (boost::shared_ptr<pong::User> const&)> const&, pong::MatchCondition), boost::_bi::list4<boost::arg<1>, boost::_bi::value<boost::uuids::uuid>, boost::_bi::value<boost::function<boost::uuids::uuid (boost::shared_ptr<pong::User> const&)> >, boost::_bi::value<pong::MatchCondition> > >::~bind_t()
PUBLIC b991c 0 boost::function<std::string (boost::shared_ptr<pong::User> const&)>::~function()
PUBLIC b9936 0 boost::_bi::value<boost::function<std::string (boost::shared_ptr<pong::User> const&)> >::~value()
PUBLIC b9950 0 boost::_bi::storage3<boost::arg<1>, boost::_bi::value<std::string>, boost::_bi::value<boost::function<std::string (boost::shared_ptr<pong::User> const&)> > >::~storage3()
PUBLIC b997a 0 boost::_bi::storage4<boost::arg<1>, boost::_bi::value<std::string>, boost::_bi::value<boost::function<std::string (boost::shared_ptr<pong::User> const&)> >, boost::_bi::value<pong::MatchCondition> >::~storage4()
PUBLIC b9994 0 boost::_bi::list4<boost::arg<1>, boost::_bi::value<std::string>, boost::_bi::value<boost::function<std::string (boost::shared_ptr<pong::User> const&)> >, boost::_bi::value<pong::MatchCondition> >::~list4()
PUBLIC b99ae 0 boost::_bi::bind_t<bool, bool (*)(boost::shared_ptr<pong::User> const&, std::string const&, boost::function<std::string (boost::shared_ptr<pong::User> const&)> const&, pong::MatchCondition), boost::_bi::list4<boost::arg<1>, boost::_bi::value<std::string>, boost::_bi::value<boost::function<std::string (boost::shared_ptr<pong::User> const&)> >, boost::_bi::value<pong::MatchCondition> > >::~bind_t()
PUBLIC b99cc 0 boost::function<boost::shared_ptr<pong::Character> (boost::shared_ptr<pong::User> const&)>::~function()
PUBLIC b99e6 0 boost::_bi::value<boost::function<bool (boost::shared_ptr<pong::Character> const&)> >::~value()
PUBLIC b9a00 0 boost::_bi::storage2<boost::arg<1>, boost::_bi::value<boost::function<bool (boost::shared_ptr<pong::Character> const&)> > >::~storage2()
PUBLIC b9a1a 0 boost::_bi::value<boost::function<boost::shared_ptr<pong::Character> (boost::shared_ptr<pong::User> const&)> >::~value()
PUBLIC b9a34 0 boost::_bi::storage3<boost::arg<1>, boost::_bi::value<boost::function<bool (boost::shared_ptr<pong::Character> const&)> >, boost::_bi::value<boost::function<boost::shared_ptr<pong::Character> (boost::shared_ptr<pong::User> const&)> > >::~storage3()
PUBLIC b9a5e 0 boost::_bi::list3<boost::arg<1>, boost::_bi::value<boost::function<bool (boost::shared_ptr<pong::Character> const&)> >, boost::_bi::value<boost::function<boost::shared_ptr<pong::Character> (boost::shared_ptr<pong::User> const&)> > >::~list3()
PUBLIC b9a78 0 boost::_bi::bind_t<bool, bool (*)(boost::shared_ptr<pong::User> const&, boost::function<bool (boost::shared_ptr<pong::Character> const&)> const&, boost::function<boost::shared_ptr<pong::Character> (boost::shared_ptr<pong::User> const&)> const&), boost::_bi::list3<boost::arg<1>, boost::_bi::value<boost::function<bool (boost::shared_ptr<pong::Character> const&)> >, boost::_bi::value<boost::function<boost::shared_ptr<pong::Character> (boost::shared_ptr<pong::User> const&)> > > >::~bind_t()
PUBLIC b9a96 0 boost::function<long (boost::shared_ptr<pong::User> const&)>::~function()
PUBLIC b9ab0 0 boost::_bi::value<boost::function<long (boost::shared_ptr<pong::User> const&)> >::~value()
PUBLIC b9aca 0 boost::_bi::storage3<boost::arg<1>, boost::_bi::value<long>, boost::_bi::value<boost::function<long (boost::shared_ptr<pong::User> const&)> > >::~storage3()
PUBLIC b9ae8 0 boost::_bi::storage4<boost::arg<1>, boost::_bi::value<long>, boost::_bi::value<boost::function<long (boost::shared_ptr<pong::User> const&)> >, boost::_bi::value<pong::MatchCondition> >::~storage4()
PUBLIC b9b02 0 boost::_bi::list4<boost::arg<1>, boost::_bi::value<long>, boost::_bi::value<boost::function<long (boost::shared_ptr<pong::User> const&)> >, boost::_bi::value<pong::MatchCondition> >::~list4()
PUBLIC b9b1c 0 boost::_bi::bind_t<bool, bool (*)(boost::shared_ptr<pong::User> const&, long const&, boost::function<long (boost::shared_ptr<pong::User> const&)> const&, pong::MatchCondition), boost::_bi::list4<boost::arg<1>, boost::_bi::value<long>, boost::_bi::value<boost::function<long (boost::shared_ptr<pong::User> const&)> >, boost::_bi::value<pong::MatchCondition> > >::~bind_t()
PUBLIC b9b3a 0 boost::shared_ptr<pong::User::OpaqueData>::~shared_ptr()
PUBLIC b9b58 0 boost::shared_ptr<pong::User>& std::forward<boost::shared_ptr<pong::User>&>(std::remove_reference<boost::shared_ptr<pong::User>&>::type&)
PUBLIC b9b66 0 std::pair<boost::uuids::uuid, boost::shared_ptr<pong::User> >::pair<boost::uuids::uuid&, boost::shared_ptr<pong::User>&, void>(boost::uuids::uuid&, boost::shared_ptr<pong::User>&)
PUBLIC b9bba 0 std::pair<boost::uuids::uuid, boost::shared_ptr<pong::User> >::~pair()
PUBLIC b9bd8 0 std::pair<boost::uuids::uuid, boost::shared_ptr<pong::User> >::pair(std::pair<boost::uuids::uuid, boost::shared_ptr<pong::User> >&&)
PUBLIC b9c1b 0 std::pair<std::__decay_and_strip<boost::uuids::uuid&>::__type, std::__decay_and_strip<boost::shared_ptr<pong::User>&>::__type> std::make_pair<boost::uuids::uuid&, boost::shared_ptr<pong::User>&>(boost::uuids::uuid&, boost::shared_ptr<pong::User>&)
PUBLIC b9c6c 0 std::pair<std::string, boost::shared_ptr<pong::User> >::pair<boost::shared_ptr<pong::User>&, void>(std::string const&, boost::shared_ptr<pong::User>&)
PUBLIC b9cb4 0 std::pair<std::string, boost::shared_ptr<pong::User> >::~pair()
PUBLIC b9cde 0 std::pair<std::string, boost::shared_ptr<pong::User> >::pair(std::pair<std::string, boost::shared_ptr<pong::User> >&&)
PUBLIC b9d1e 0 std::pair<std::__decay_and_strip<std::string const&>::__type, std::__decay_and_strip<boost::shared_ptr<pong::User>&>::__type> std::make_pair<std::string const&, boost::shared_ptr<pong::User>&>(std::string const&, boost::shared_ptr<pong::User>&)
PUBLIC b9d6e 0 boost::shared_ptr<fun::AttributeModel const>::~shared_ptr()
PUBLIC b9d8c 0 boost::shared_ptr<fun::ObjectModel const>::~shared_ptr()
PUBLIC b9daa 0 boost::exception_detail::refcount_ptr<boost::exception_detail::error_info_container>::refcount_ptr()
PUBLIC b9dc0 0 boost::exception_detail::refcount_ptr<boost::exception_detail::error_info_container>::~refcount_ptr()
PUBLIC b9dda 0 boost::exception_detail::refcount_ptr<boost::exception_detail::error_info_container>::get() const
PUBLIC b9dec 0 boost::exception_detail::refcount_ptr<boost::exception_detail::error_info_container>::operator=(boost::exception_detail::refcount_ptr<boost::exception_detail::error_info_container> const&)
PUBLIC b9e18 0 boost::exception_detail::clone_base::clone_base(boost::exception_detail::clone_base const&)
PUBLIC b9e38 0 boost::arg<1>::arg()
PUBLIC b9e42 0 boost::arg<2>::arg()
PUBLIC b9e4c 0 boost::arg<3>::arg()
PUBLIC b9e56 0 boost::arg<4>::arg()
PUBLIC b9e60 0 boost::arg<5>::arg()
PUBLIC b9e6a 0 boost::arg<6>::arg()
PUBLIC b9e74 0 boost::arg<7>::arg()
PUBLIC b9e7e 0 boost::arg<8>::arg()
PUBLIC b9e88 0 boost::arg<9>::arg()
PUBLIC b9e92 0 std::runtime_error::runtime_error(std::runtime_error const&)
PUBLIC b9f06 0 std::_Tuple_impl<1ul>::_Tuple_impl()
PUBLIC b9f10 0 boost::exception_detail::refcount_ptr<boost::exception_detail::error_info_container>::adopt(boost::exception_detail::error_info_container*)
PUBLIC b9f46 0 boost::exception_detail::refcount_ptr<boost::exception_detail::error_info_container>::refcount_ptr(boost::exception_detail::refcount_ptr<boost::exception_detail::error_info_container> const&)
PUBLIC b9f72 0 boost::shared_ptr<boost::exception_detail::clone_base const>::shared_ptr(boost::shared_ptr<boost::exception_detail::clone_base const> const&)
PUBLIC b9fae 0 boost::exception_detail::bad_alloc_::bad_alloc_()
PUBLIC b9ffe 0 std::bad_alloc::bad_alloc(std::bad_alloc const&)
PUBLIC ba036 0 boost::exception_detail::bad_alloc_::bad_alloc_(boost::exception_detail::bad_alloc_ const&)
